(lp0
(lp1
V10191NJ0030001
p2
aV10191NJ0030002
p3
aV10191NJ0050001
p4
aV10191NJ0050002
p5
aV10191NJ0050003
p6
aV10191NJ0070001
p7
aV10191NJ0070002
p8
aV10191NJ0070003
p9
aV10191NJ0150001
p10
aV10191NJ0180001
p11
aV10191NJ0190001
p12
aV10191NJ0190002
p13
aV10191NJ0190004
p14
aV10191NJ0290001
p15
aV10191NJ0290002
p16
aV10191NJ0290003
p17
aV10191NJ0290004
p18
aV56707OR0850005
p19
aV56707OR0850006
p20
aV56707OR0850008
p21
aV56707OR0870002
p22
aV56707OR0880002
p23
aV56707OR0900008
p24
aV56707OR0900009
p25
aV56707OR0900011
p26
aV56707OR0910008
p27
aV56707OR0910009
p28
aV56707OR0910011
p29
aV56707OR0990002
p30
aV56707OR1000002
p31
aV63474OR0030003
p32
aV35783FL1030005
p33
aV35783FL1030014
p34
aV35783FL1030042
p35
aV35783FL1030050
p36
aV35783FL1030064
p37
aV35783FL1030065
p38
aV48963MS0500007
p39
aV48963MS0500008
p40
aV48963MS0500011
p41
aV48963MS0500012
p42
aV48963MS0500013
p43
aV48963MS0500014
p44
aV48963MS0500017
p45
aV48963MS0500018
p46
aV93332GA0580002
p47
aV93332GA0580011
p48
aV93332GA0580046
p49
aV93332GA0580047
p50
aV93332GA0580048
p51
aV93332GA0580051
p52
aV93332GA0610002
p53
aV93332GA0610011
p54
aV93332GA0610037
p55
aV93332GA0610046
p56
aV93332GA0610047
p57
aV93332GA0610048
p58
aV15411KY1450001
p59
aV15411KY1450002
p60
aV15411KY1450003
p61
aV15411KY1450004
p62
aV15411KY1450005
p63
aV15411KY1450011
p64
aV15411KY1450012
p65
aV15411KY1450013
p66
aV15411KY1450014
p67
aV15411KY1450015
p68
aV15411KY1450021
p69
aV15411KY1450022
p70
aV15411KY1450023
p71
aV15411KY1450024
p72
aV15411KY1450025
p73
aV15411KY1450031
p74
aV15411KY1450032
p75
aV15411KY1450033
p76
aV15411KY1450034
p77
aV15411KY1450035
p78
aV23307AZ0400001
p79
aV23307AZ0400002
p80
aV23307AZ0400003
p81
aV23307AZ0400004
p82
aV23307AZ0400005
p83
aV23307AZ0400011
p84
aV23307AZ0400012
p85
aV23307AZ0400013
p86
aV23307AZ0400014
p87
aV23307AZ0400015
p88
aV30613MO0570001
p89
aV30613MO0570002
p90
aV30613MO0570003
p91
aV30613MO0570004
p92
aV30613MO0570005
p93
aV30613MO0570006
p94
aV30613MO0570007
p95
aV30613MO0570008
p96
aV30613MO0570009
p97
aV30613MO0570010
p98
aV30613MO0570014
p99
aV30613MO0570015
p100
aV32673TX0630001
p101
aV32673TX0630002
p102
aV32673TX0630003
p103
aV32673TX0630004
p104
aV32673TX0630005
p105
aV32673TX0640001
p106
aV32673TX0640002
p107
aV32673TX0640003
p108
aV32673TX0640004
p109
aV32673TX0640005
p110
aV32673TX0640006
p111
aV32673TX0640017
p112
aV32673TX0640018
p113
aV32673TX0640025
p114
aV32673TX0640026
p115
aV32673TX0640027
p116
aV32673TX0640028
p117
aV32673TX0640029
p118
aV32673TX0640041
p119
aV32673TX0640042
p120
aV32673TX0640049
p121
aV32673TX0640050
p122
aV32673TX0640051
p123
aV32673TX0640052
p124
aV32673TX0640053
p125
aV35783FL1150001
p126
aV35783FL1150002
p127
aV35783FL1150003
p128
aV35783FL1150004
p129
aV35783FL1150005
p130
aV35783FL1150006
p131
aV35783FL1160005
p132
aV35783FL1160017
p133
aV35783FL1160018
p134
aV35783FL1160033
p135
aV35783FL1160034
p136
aV35783FL1160045
p137
aV44580AL0360001
p138
aV44580AL0360002
p139
aV44580AL0360003
p140
aV44580AL0360004
p141
aV44580AL0360005
p142
aV44580AL0360011
p143
aV44580AL0360012
p144
aV44580AL0360013
p145
aV44580AL0360014
p146
aV44580AL0360015
p147
aV44965LA0570001
p148
aV44965LA0570002
p149
aV44965LA0570003
p150
aV44965LA0570004
p151
aV44965LA0570005
p152
aV44965LA0570021
p153
aV44965LA0570022
p154
aV44965LA0570023
p155
aV44965LA0570024
p156
aV44965LA0570025
p157
aV44965LA0570026
p158
aV44965LA0570027
p159
aV44965LA0570028
p160
aV44965LA0570029
p161
aV44965LA0570030
p162
aV46275MI0010004
p163
aV46275MI0010005
p164
aV46275MI0010019
p165
aV46275MI0010020
p166
aV48963MS0490004
p167
aV48963MS0490005
p168
aV48963MS0490014
p169
aV48963MS0490015
p170
aV56764UT0010001
p171
aV56764UT0010002
p172
aV56764UT0010003
p173
aV56764UT0010004
p174
aV56764UT0010005
p175
aV56764UT0010006
p176
aV58288IL0380013
p177
aV58288IL0380014
p178
aV58288IL0380015
p179
aV58288IL0380016
p180
aV58288IL0380017
p181
aV58288IL0380025
p182
aV58288IL0380026
p183
aV58288IL0380027
p184
aV58288IL0380028
p185
aV58288IL0380029
p186
aV63141TX0740001
p187
aV63141TX0740002
p188
aV63141TX0740004
p189
aV63141TX0740005
p190
aV63141TX0740029
p191
aV63141TX0740030
p192
aV63141TX0740032
p193
aV63141TX0740033
p194
aV66083OH0610001
p195
aV66083OH0610002
p196
aV66083OH0610003
p197
aV66083OH0610004
p198
aV66083OH0610005
p199
aV66083OH0610011
p200
aV66083OH0610012
p201
aV66083OH0610013
p202
aV66083OH0610014
p203
aV66083OH0610015
p204
aV66083OH0610025
p205
aV66083OH0610026
p206
aV66083OH0610027
p207
aV66083OH0610028
p208
aV66083OH0610034
p209
aV66083OH0610035
p210
aV66083OH0610036
p211
aV66083OH0610037
p212
aV74320CO0610001
p213
aV74320CO0610002
p214
aV74320CO0610003
p215
aV74320CO0610004
p216
aV74320CO0610005
p217
aV74320CO0610006
p218
aV74320CO0610007
p219
aV82120TN0600014
p220
aV93332GA0710006
p221
aV93332GA0710042
p222
aV93332GA0710047
p223
aV93332GA0720001
p224
aV93332GA0720002
p225
aV93332GA0720004
p226
aV93332GA0720006
p227
aV47342WI0050003
p228
aV47342WI0050004
p229
aV47342WI0050005
p230
aV47342WI0050006
p231
aV47342WI0050013
p232
aV47342WI0050014
p233
aV47342WI0050015
p234
aV47342WI0050016
p235
aV47342WI0050017
p236
aV47342WI0050018
p237
aV47342WI0050019
p238
aV47342WI0050020
p239
aV47342WI0050031
p240
aV47342WI0050032
p241
aV47342WI0050034
p242
aV47342WI0050035
p243
aV47342WI0050037
p244
aV47342WI0050038
p245
aV47342WI0050048
p246
aV47342WI0050049
p247
aV47342WI0050050
p248
aV47342WI0050051
p249
aV47342WI0050052
p250
aV47342WI0050053
p251
aV47342WI0050054
p252
aV47342WI0050055
p253
aV47342WI0050056
p254
aV47342WI0050057
p255
aV47342WI0050058
p256
aV47342WI0050059
p257
aV47342WI0050060
p258
aV47342WI0050061
p259
aV47342WI0050062
p260
aV47342WI0050063
p261
aV19304NH0010001
p262
aV19304NH0010002
p263
aV19304NH0010003
p264
aV19304NH0010004
p265
aV19304NH0010005
p266
aV19304NH0010007
p267
aV19304NH0020001
p268
aV19304NH0020002
p269
aV19304NH0050001
p270
aV19304NH0050002
p271
aV19304NH0050003
p272
aV19304NH0100001
p273
aV19304NH0100002
p274
aV19304NH0100003
p275
aV19304NH0100004
p276
aV19304NH0100005
p277
aV19304NH0100006
p278
aV19304NH0100007
p279
aV19304NH0100008
p280
aV19304NH0100009
p281
aV19304NH0100010
p282
aV19304NH0110001
p283
aV39424OR1240001
p284
aV39424OR1240002
p285
aV39424OR1260001
p286
aV39424OR1260002
p287
aV39424OR1310001
p288
aV39424OR1320001
p289
aV39424OR1460001
p290
aV39424OR1460002
p291
aV39424OR1460003
p292
aV39424OR1460004
p293
aV39424OR1470001
p294
aV39424OR1480001
p295
aV39424OR1480002
p296
aV39424OR1480003
p297
aV39424OR1490001
p298
aV39424OR1500001
p299
aV91661NJ2270001
p300
aV91661NJ2270002
p301
aV91661NJ2270003
p302
aV91661NJ2280001
p303
aV91661NJ2290002
p304
aV91661NJ2300001
p305
aV91661NJ2300003
p306
aV91661NJ2300004
p307
aV91661NJ2300007
p308
aV91661NJ2300015
p309
aV91661NJ2300018
p310
aV91661NJ2300019
p311
aV91661NJ2340001
p312
aV91661NJ2340002
p313
aV91661NJ2340003
p314
aV91661NJ2340004
p315
aV91661NJ2340005
p316
aV91661NJ2350001
p317
aV91661NJ2350002
p318
aV91661NJ2350003
p319
aV91661NJ2350004
p320
aV91661NJ2350005
p321
aV32225MT0010001
p322
aV32225MT0010002
p323
aV32225MT0010003
p324
aV32225MT0010004
p325
aV32225MT0020002
p326
aV32225MT0020003
p327
aV32225MT0020004
p328
aV32225MT0020005
p329
aV32225MT0020006
p330
aV32225MT0020007
p331
aV32225MT0030001
p332
aV32225MT0040001
p333
aV32225MT0040002
p334
aV32225MT0040003
p335
aV32225MT0040004
p336
aV32225MT0050002
p337
aV32225MT0050003
p338
aV32225MT0050004
p339
aV32225MT0050005
p340
aV32225MT0050006
p341
aV32225MT0050007
p342
aV33653ME0010001
p343
aV33653ME0010002
p344
aV33653ME0010003
p345
aV33653ME0010004
p346
aV33653ME0010005
p347
aV33653ME0010007
p348
aV33653ME0020001
p349
aV33653ME0050001
p350
aV33653ME0050002
p351
aV33653ME0050003
p352
aV33653ME0100001
p353
aV33653ME0100002
p354
aV33653ME0100003
p355
aV33653ME0100004
p356
aV33653ME0100005
p357
aV33653ME0100006
p358
aV33653ME0100007
p359
aV33653ME0100008
p360
aV33653ME0100009
p361
aV33653ME0100010
p362
aV33653ME0110001
p363
aV10091OR0360004
p364
aV10091OR0360005
p365
aV10091OR0360006
p366
aV10091OR0360007
p367
aV10091OR0360008
p368
aV10091OR0360009
p369
aV10091OR0360010
p370
aV10091OR0360011
p371
aV10091OR0360012
p372
aV10091OR0370002
p373
aV10091OR0370003
p374
aV10091OR0370004
p375
aV10091OR0380003
p376
aV10091OR0380004
p377
aV10091OR0380005
p378
aV10091OR0380006
p379
aV10091OR0380007
p380
aV10091OR0380008
p381
aV10091OR0380009
p382
aV10091OR0380010
p383
aV10091OR0380011
p384
aV10091OR0380012
p385
aV10091OR0380013
p386
aV10091OR0380014
p387
aV10091OR0390003
p388
aV10091OR0390004
p389
aV10091OR0390005
p390
aV10091OR0390007
p391
aV10091OR0390008
p392
aV10091OR0390009
p393
aV10091OR0390011
p394
aV10091OR0390012
p395
aV10091OR0390014
p396
aV10091OR0390015
p397
aV10091OR0410001
p398
aV10091OR0410002
p399
aV10091OR0410006
p400
aV10091OR0410007
p401
aV10091OR0410008
p402
aV10091OR0410009
p403
aV10091OR0410010
p404
aV10091OR0410011
p405
aV10091OR0410012
p406
aV10091OR0420001
p407
aV10091OR0420002
p408
aV10091OR0420003
p409
aV10091OR0420006
p410
aV10091OR0420007
p411
aV10091OR0420008
p412
aV10091OR0420009
p413
aV10091OR0420010
p414
aV10091OR0420011
p415
aV10091OR0420012
p416
aV10091OR0420013
p417
aV10091OR0420014
p418
aV10091OR0440002
p419
aV10091OR0440003
p420
aV10091OR0440005
p421
aV10091OR0440012
p422
aV10091OR0440014
p423
aV10091OR0440020
p424
aV10091OR0440021
p425
aV10091OR0440022
p426
aV10091OR0440024
p427
aV10091OR0440025
p428
aV10091OR0440026
p429
aV10091OR0440027
p430
aV10091OR0470002
p431
aV10091OR0480001
p432
aV10091OR0490001
p433
aV10091OR0500001
p434
aV10091OR0500002
p435
aV10091OR0500003
p436
aV10091OR0510005
p437
aV10091OR0510006
p438
aV10091OR0510007
p439
aV10091OR0510008
p440
aV10091OR0520005
p441
aV10091OR0520006
p442
aV10091OR0520007
p443
aV10091OR0520008
p444
aV10091OR0520009
p445
aV10091OR0540001
p446
aV10091OR0540002
p447
aV10091OR0590001
p448
aV10091OR0590002
p449
aV10091OR0590003
p450
aV10091OR0590004
p451
aV53789PA0070011
p452
aV94529WI0210017
p453
aV94529WI0210018
p454
aV94529WI0210019
p455
aV94529WI0210020
p456
aV94529WI0210021
p457
aV94529WI0210022
p458
aV94529WI0210023
p459
aV94529WI0210024
p460
aV94529WI0210025
p461
aV94529WI0210026
p462
aV94529WI0210028
p463
aV94529WI0210029
p464
aV94529WI0210030
p465
aV94529WI0210031
p466
aV94529WI0210032
p467
aV94529WI0210033
p468
aV94529WI0210034
p469
aV94529WI0210035
p470
aV94529WI0210036
p471
aV94529WI0210037
p472
aV94529WI0210039
p473
aV94529WI0210040
p474
aV94529WI0210041
p475
aV94529WI0210042
p476
aV37160ND2410002
p477
aV37160ND2410005
p478
aV37160ND2410014
p479
aV37160ND2410018
p480
aV37160ND2410020
p481
aV37160ND2410021
p482
aV37160ND2440001
p483
aV37160ND2440004
p484
aV29678NE0980002
p485
aV29678NE0980003
p486
aV29678NE0980004
p487
aV29678NE0980005
p488
aV29678NE1100001
p489
aV29678NE1100004
p490
aV29678NE1100005
p491
aV29678NE1100006
p492
aV29678NE1100007
p493
aV29678NE1100008
p494
aV29678NE1100009
p495
aV29678NE1120001
p496
aV29678NE1120002
p497
aV29678NE1120004
p498
aV29678NE1120005
p499
aV29678NE1120006
p500
aV29678NE1120007
p501
aV29678NE1120008
p502
aV29678NE1120009
p503
aV29678NE1120010
p504
aV29678NE1120011
p505
aV29678NE1120012
p506
aV29678NE1120013
p507
aV29678NE1340001
p508
aV29678NE1340002
p509
aV29678NE1340003
p510
aV33709PA0690001
p511
aV33709PA0690002
p512
aV33709PA0690003
p513
aV63474OR0480001
p514
aV16322PA0040006
p515
aV16322PA0040007
p516
aV16322PA0040008
p517
aV16322PA0040010
p518
aV16322PA0040012
p519
aV16322PA0040024
p520
aV16322PA0040025
p521
aV16322PA0040026
p522
aV16322PA0050029
p523
aV16322PA0050030
p524
aV16322PA0050031
p525
aV16322PA0050033
p526
aV16322PA0050035
p527
aV16322PA0050100
p528
aV16322PA0050101
p529
aV16322PA0050102
p530
aV16322PA0050103
p531
aV16322PA0050104
p532
aV16322PA0050105
p533
aV16322PA0050106
p534
aV16322PA0050107
p535
aV16322PA0050108
p536
aV16322PA0060041
p537
aV16322PA0060042
p538
aV16322PA0060043
p539
aV16322PA0060044
p540
aV16322PA0060045
p541
aV16322PA0060046
p542
aV16322PA0060047
p543
aV16322PA0060048
p544
aV16322PA0060049
p545
aV16322PA0060050
p546
aV16322PA0060051
p547
aV16322PA0060052
p548
aV16322PA0060053
p549
aV16322PA0060054
p550
aV16322PA0060055
p551
aV16322PA0060056
p552
aV16322PA0060057
p553
aV16322PA0060058
p554
aV16322PA0060059
p555
aV16322PA0060060
p556
aV16322PA0060061
p557
aV16322PA0060062
p558
aV16322PA0060063
p559
aV16322PA0060064
p560
aV16322PA0060065
p561
aV16322PA0060066
p562
aV16322PA0060067
p563
aV16322PA0060068
p564
aV16322PA0070011
p565
aV16322PA0070012
p566
aV16322PA0070013
p567
aV16322PA0070014
p568
aV16322PA0070015
p569
aV16322PA0070016
p570
aV16322PA0070017
p571
aV16322PA0070018
p572
aV16322PA0070019
p573
aV16322PA0070020
p574
aV16322PA0070021
p575
aV16322PA0070022
p576
aV16322PA0070023
p577
aV16322PA0070024
p578
aV62560PA0020053
p579
aV62560PA0020054
p580
aV62560PA0020055
p581
aV62560PA0020059
p582
aV62560PA0020060
p583
aV62560PA0020061
p584
aV62560PA0030003
p585
aV33709PA0440009
p586
aV33709PA0440013
p587
aV33709PA0440014
p588
aV33709PA0450004
p589
aV33709PA0460007
p590
aV33709PA0460008
p591
aV33709PA0460012
p592
aV33709PA0460013
p593
aV33709PA0480003
p594
aV33709PA0480004
p595
aV33709PA0560007
p596
aV33709PA0560009
p597
aV33709PA0560011
p598
aV33709PA0560013
p599
aV33709PA0560015
p600
aV33709PA0560017
p601
aV33709PA0560019
p602
aV33709PA0560021
p603
aV33709PA0560023
p604
aV33709PA0560027
p605
aV33709PA0560029
p606
aV33709PA0570004
p607
aV33709PA0570006
p608
aV33709PA0570007
p609
aV33709PA0630002
p610
aV33709PA0630003
p611
aV33709PA0630004
p612
aV33709PA0630005
p613
aV33709PA0630006
p614
aV33709PA0630007
p615
aV33709PA0640001
p616
aV33709PA0640002
p617
aV33709PA0640003
p618
aV33709PA0640004
p619
aV33709PA0640005
p620
aV33709PA0690004
p621
aV33871PA0040002
p622
aV33871PA0040003
p623
aV33871PA0040004
p624
aV33871PA0040005
p625
aV33871PA0040006
p626
aV33871PA0040007
p627
aV33871PA0100008
p628
aV33871PA0100009
p629
aV31274WV0310001
p630
aV31274WV0310002
p631
aV31274WV0320001
p632
aV31274WV0330001
p633
aV31274WV0330002
p634
aV31274WV0330003
p635
aV31274WV0330004
p636
aV31274WV0330005
p637
aV31274WV0330006
p638
aV31274WV0340001
p639
aV31274WV0340002
p640
aV31274WV0340004
p641
aV31274WV0350001
p642
aV31274WV0350002
p643
aV31274WV0410011
p644
aV31274WV0420011
p645
aV31274WV0420012
p646
aV31274WV0420021
p647
aV31274WV0420031
p648
aV31274WV0420041
p649
aV31274WV0430012
p650
aV31274WV0430021
p651
aV31274WV0440022
p652
aV31274WV0440031
p653
aV31274WV0440033
p654
aV31274WV0440041
p655
aV31274WV0440051
p656
aV31274WV0450001
p657
aV31274WV0450002
p658
aV31274WV0470001
p659
aV31274WV0470003
p660
aV31274WV0470004
p661
aV63474OR0320001
p662
aV63474OR0540001
p663
aV18167UT0010001
p664
aV18167UT0010002
p665
aV18167UT0010003
p666
aV19722NM0010001
p667
aV19722NM0010002
p668
aV19722NM0010003
p669
aV40047MI0010001
p670
aV40047MI0010002
p671
aV40047MI0010003
p672
aV45786TX0010001
p673
aV45786TX0010002
p674
aV45786TX0020001
p675
aV45786TX0020002
p676
aV45786TX0020003
p677
aV52697WI0010001
p678
aV52697WI0010002
p679
aV52697WI0010003
p680
aV54172FL0010001
p681
aV54172FL0010002
p682
aV54172FL0010003
p683
aV64353OH0010001
p684
aV64353OH0010002
p685
aV64353OH0010003
p686
aV61163NH0010001
p687
aV61163NH0030001
p688
aV61163NH0130001
p689
aV61163NH0150001
p690
aV61163NH0210001
p691
aV61163NH0250001
p692
aV61163NH0310001
p693
aV61163NH0330001
p694
aV61163NH0350001
p695
aV61163NH0360001
p696
aV61163NH0370001
p697
aV61163NH0380001
p698
aV61163NH0400001
p699
aV45495GA0010018
p700
aV70893GA0010001
p701
aV70893GA0010002
p702
aV70893GA0010003
p703
aV70893GA0010005
p704
aV70893GA0010006
p705
aV70893GA0010007
p706
aV70893GA0020001
p707
aV70893GA0020002
p708
aV70893GA0020003
p709
aV70893GA0020004
p710
aV70893GA0020005
p711
aV70893GA0030001
p712
aV70893GA0030002
p713
aV70893GA0030003
p714
aV70893GA0030004
p715
aV70893GA0030005
p716
aV21663FL0130001
p717
aV21663FL0130002
p718
aV21663FL0130003
p719
aV21663FL0130005
p720
aV21663FL0130006
p721
aV21663FL0130007
p722
aV21663FL0140001
p723
aV21663FL0140002
p724
aV21663FL0140003
p725
aV21663FL0140004
p726
aV21663FL0140005
p727
aV21663FL0150001
p728
aV21663FL0150002
p729
aV21663FL0150003
p730
aV21663FL0150004
p731
aV21663FL0150005
p732
aV21663FL0160001
p733
aV86382FL0010018
p734
aV33871PA0040001
p735
aV33871PA0100001
p736
aV33871PA0100002
p737
aV33871PA0100003
p738
aV33871PA0100004
p739
aV33871PA0100005
p740
aV33871PA0100006
p741
aV33871PA0100007
p742
aV33871PA0100010
p743
aV33871PA0100011
p744
aV33871PA0100012
p745
aV33871PA0100013
p746
aV33871PA0100014
p747
aV33871PA0100015
p748
aV33871PA0100016
p749
aV33871PA0100018
p750
aV33871PA0100019
p751
aV33871PA0100034
p752
aV33871PA0100035
p753
aV33871PA0100036
p754
aV33871PA0100037
p755
aV38344AK0570001
p756
aV38344AK0570002
p757
aV38344AK0620003
p758
aV38344AK0620004
p759
aV38344AK0620006
p760
aV38344AK0620008
p761
aV38344AK0980003
p762
aV38344AK0980006
p763
aV38344AK0980012
p764
aV63474OR0490001
p765
aV36247PA0060001
p766
aV36247PA0060002
p767
aV35334WI0010101
p768
aV35334WI0010102
p769
aV35334WI0010103
p770
aV35334WI0010104
p771
aV35334WI0010105
p772
aV58326WI0060101
p773
aV58326WI0060102
p774
aV58326WI0060103
p775
aV58326WI0060104
p776
aV58326WI0060105
p777
aV58326WI0060106
p778
aV58326WI0060107
p779
aV58326WI0060108
p780
aV58326WI0060109
p781
aV58326WI0060110
p782
aV58326WI0070101
p783
aV58326WI0070102
p784
aV58326WI0070103
p785
aV58326WI0070104
p786
aV58326WI0070105
p787
aV58326WI0070106
p788
aV58326WI0090001
p789
aV58326WI0090002
p790
aV58326WI0090006
p791
aV58326WI0090012
p792
aV58326WI0090013
p793
aV58326WI0090015
p794
aV58326WI0090016
p795
aV58326WI0090018
p796
aV58326WI0090019
p797
aV96751NH0150015
p798
aV96751NH0150016
p799
aV96751NH0150017
p800
aV96751NH0150018
p801
aV96751NH0150020
p802
aV96751NH0150022
p803
aV96751NH0150023
p804
aV96751NH0150024
p805
aV96751NH0150025
p806
aV96751NH0160005
p807
aV96751NH0160006
p808
aV96751NH0160008
p809
aV96751NH0160010
p810
aV96751NH0160011
p811
aV96751NH0160012
p812
aV96751NH0330005
p813
aV96751NH0330006
p814
aV63474OR0550001
p815
aV11269WY0070001
p816
aV11269WY0070002
p817
aV11269WY0070003
p818
aV11269WY0070004
p819
aV11269WY0070005
p820
aV11269WY0080001
p821
aV11269WY0080002
p822
aV11269WY0080003
p823
aV11269WY0080004
p824
aV11269WY0150001
p825
aV11269WY0150002
p826
aV11269WY0150003
p827
aV11269WY0150004
p828
aV11269WY0150005
p829
aV11269WY0160001
p830
aV11269WY0160002
p831
aV11269WY0160003
p832
aV11269WY0160004
p833
aV11269WY0170006
p834
aV11269WY0170011
p835
aV11269WY0170012
p836
aV11269WY0170013
p837
aV11269WY0170014
p838
aV11269WY0180006
p839
aV11269WY0180011
p840
aV11269WY0180012
p841
aV11269WY0180013
p842
aV11269WY0180014
p843
aV11269WY0190005
p844
aV11269WY0190010
p845
aV11269WY0190011
p846
aV11269WY0190012
p847
aV11269WY0200005
p848
aV11269WY0200010
p849
aV11269WY0200011
p850
aV11269WY0200012
p851
aV11269WY0070011
p852
aV11269WY0070012
p853
aV11269WY0070013
p854
aV11269WY0070014
p855
aV11269WY0070015
p856
aV11269WY0070016
p857
aV11269WY0070018
p858
aV11269WY0070019
p859
aV11269WY0070020
p860
aV11269WY0070021
p861
aV11269WY0080010
p862
aV11269WY0080011
p863
aV11269WY0080012
p864
aV11269WY0080013
p865
aV11269WY0080014
p866
aV11269WY0080015
p867
aV11269WY0080016
p868
aV11269WY0080017
p869
aV11269WY0150006
p870
aV11269WY0150007
p871
aV11269WY0150008
p872
aV11269WY0150009
p873
aV11269WY0150010
p874
aV11269WY0150011
p875
aV11269WY0150012
p876
aV11269WY0150013
p877
aV11269WY0150014
p878
aV11269WY0150015
p879
aV11269WY0160005
p880
aV11269WY0160006
p881
aV11269WY0160007
p882
aV11269WY0160008
p883
aV11269WY0160009
p884
aV11269WY0160010
p885
aV11269WY0160011
p886
aV11269WY0160012
p887
aV11269WY0170001
p888
aV11269WY0170002
p889
aV11269WY0170003
p890
aV11269WY0170004
p891
aV11269WY0170005
p892
aV11269WY0170007
p893
aV11269WY0170008
p894
aV11269WY0170009
p895
aV11269WY0170010
p896
aV11269WY0170015
p897
aV11269WY0180001
p898
aV11269WY0180002
p899
aV11269WY0180003
p900
aV11269WY0180004
p901
aV11269WY0180005
p902
aV11269WY0180007
p903
aV11269WY0180008
p904
aV11269WY0180009
p905
aV11269WY0180010
p906
aV11269WY0180015
p907
aV11269WY0190001
p908
aV11269WY0190002
p909
aV11269WY0190003
p910
aV11269WY0190004
p911
aV11269WY0190006
p912
aV11269WY0190007
p913
aV11269WY0190008
p914
aV11269WY0190009
p915
aV11269WY0200001
p916
aV11269WY0200002
p917
aV11269WY0200003
p918
aV11269WY0200004
p919
aV11269WY0200006
p920
aV11269WY0200007
p921
aV11269WY0200008
p922
aV11269WY0200009
p923
aV30969OR0050001
p924
aV30969OR0060001
p925
aV30969OR0070001
p926
aV30969OR0080001
p927
aV30969OR0090001
p928
aV30969OR0100001
p929
aV30969OR0110001
p930
aV30969OR0120001
p931
aV30969OR0130001
p932
aV30969OR0140001
p933
aV30969OR0150001
p934
aV30969OR0160001
p935
aV30969OR0170001
p936
aV30969OR0180001
p937
aV30969OR0190001
p938
aV30969OR0200001
p939
aV30969OR0220001
p940
aV15438NE0150001
p941
aV15438NE0150002
p942
aV15438NE0150003
p943
aV15438NE0150005
p944
aV15438NE0160001
p945
aV15438NE0160002
p946
aV15438NE0160003
p947
aV15438NE0160005
p948
aV15438NE0170001
p949
aV15438NE0170002
p950
aV15438NE0170003
p951
aV15438NE0170005
p952
aV15438NE0180001
p953
aV15438NE0180002
p954
aV15438NE0180003
p955
aV15438NE0180005
p956
aV15438NE0260005
p957
aV15438NE0260006
p958
aV15438NE0260007
p959
aV15438NE0260008
p960
aV15438NE0270009
p961
aV15438NE0270010
p962
aV15438NE0270011
p963
aV15438NE0270013
p964
aV15438NE0270014
p965
aV15438NE0270015
p966
aV15438NE0280001
p967
aV15438NE0280003
p968
aV15438NE0280005
p969
aV15438NE0280007
p970
aV18628FL0140003
p971
aV18628FL0140004
p972
aV18628FL0140005
p973
aV18973IA0160001
p974
aV18973IA0160002
p975
aV18973IA0160003
p976
aV18973IA0160005
p977
aV18973IA0170001
p978
aV18973IA0170002
p979
aV18973IA0170003
p980
aV18973IA0170005
p981
aV18973IA0180001
p982
aV18973IA0180002
p983
aV18973IA0180003
p984
aV18973IA0180005
p985
aV18973IA0190001
p986
aV18973IA0190002
p987
aV18973IA0190003
p988
aV18973IA0190005
p989
aV18973IA0210011
p990
aV18973IA0210012
p991
aV18973IA0210013
p992
aV18973IA0210014
p993
aV18973IA0220011
p994
aV18973IA0220012
p995
aV18973IA0220013
p996
aV18973IA0220014
p997
aV18973IA0220015
p998
aV18973IA0220016
p999
aV18973IA0220017
p1000
aV18973IA0220018
p1001
aV18973IA0220019
p1002
aV18973IA0220020
p1003
aV18973IA0220021
p1004
aV18973IA0220022
p1005
aV18973IA0250001
p1006
aV18973IA0250002
p1007
aV18973IA0250003
p1008
aV18973IA0250005
p1009
aV18973IA0250011
p1010
aV18973IA0250012
p1011
aV18973IA0250013
p1012
aV18973IA0250015
p1013
aV18973IA0340017
p1014
aV18973IA0340018
p1015
aV18973IA0340019
p1016
aV18973IA0340020
p1017
aV18973IA0340021
p1018
aV18973IA0340022
p1019
aV18973IA0340023
p1020
aV18973IA0340024
p1021
aV18973IA0340026
p1022
aV18973IA0340027
p1023
aV18973IA0340028
p1024
aV18973IA0340029
p1025
aV18973IA0340030
p1026
aV18973IA0340031
p1027
aV18973IA0340032
p1028
aV18973IA0340033
p1029
aV18973IA0350007
p1030
aV18973IA0350008
p1031
aV18973IA0350009
p1032
aV18973IA0350010
p1033
aV18973IA0350011
p1034
aV18973IA0350012
p1035
aV18973IA0360001
p1036
aV18973IA0360002
p1037
aV18973IA0360003
p1038
aV18973IA0360004
p1039
aV35670IL0060001
p1040
aV35670IL0060002
p1041
aV35670IL0060003
p1042
aV35670IL0060004
p1043
aV35670IL0070001
p1044
aV35670IL0070002
p1045
aV35670IL0070003
p1046
aV35670IL0070004
p1047
aV35670IL0070006
p1048
aV35670IL0070007
p1049
aV35670IL0070008
p1050
aV35670IL0070010
p1051
aV35670IL0110009
p1052
aV35670IL0110010
p1053
aV35670IL0110011
p1054
aV35670IL0110014
p1055
aV35670IL0110015
p1056
aV35670IL0110016
p1057
aV38408SC0020001
p1058
aV38408SC0020002
p1059
aV38408SC0020003
p1060
aV38408SC0020004
p1061
aV38408SC0020005
p1062
aV38408SC0020008
p1063
aV38408SC0020009
p1064
aV38408SC0020010
p1065
aV38408SC0020013
p1066
aV38408SC0020014
p1067
aV38408SC0020015
p1068
aV38408SC0020016
p1069
aV38408SC0020017
p1070
aV38408SC0020018
p1071
aV38408SC0020019
p1072
aV38408SC0020020
p1073
aV38408SC0020021
p1074
aV38408SC0020022
p1075
aV38408SC0020023
p1076
aV38408SC0020024
p1077
aV38408SC0020025
p1078
aV38408SC0020026
p1079
aV38408SC0020029
p1080
aV38408SC0020030
p1081
aV38408SC0030001
p1082
aV38408SC0030002
p1083
aV38408SC0030003
p1084
aV38408SC0030004
p1085
aV38408SC0030006
p1086
aV38408SC0030014
p1087
aV38408SC0030015
p1088
aV38408SC0030016
p1089
aV38408SC0030018
p1090
aV38408SC0030019
p1091
aV38408SC0030020
p1092
aV38408SC0030022
p1093
aV44240MO0090001
p1094
aV44240MO0090002
p1095
aV44240MO0090003
p1096
aV44240MO0090004
p1097
aV44240MO0090006
p1098
aV44240MO0090007
p1099
aV44240MO0090008
p1100
aV44240MO0090009
p1101
aV44240MO0090010
p1102
aV44240MO0090012
p1103
aV44240MO0090013
p1104
aV44240MO0090014
p1105
aV44240MO0150003
p1106
aV44240MO0150004
p1107
aV44240MO0150005
p1108
aV44240MO0150006
p1109
aV44240MO0160001
p1110
aV44240MO0160002
p1111
aV44240MO0160003
p1112
aV44240MO0160004
p1113
aV44240MO0160005
p1114
aV44240MO0160006
p1115
aV44240MO0160007
p1116
aV44240MO0160008
p1117
aV44240MO0160009
p1118
aV44240MO0160010
p1119
aV44240MO0160011
p1120
aV44240MO0160012
p1121
aV44240MO0160013
p1122
aV44240MO0160014
p1123
aV44240MO0160015
p1124
aV44240MO0170001
p1125
aV44240MO0170002
p1126
aV44240MO0170003
p1127
aV44240MO0170004
p1128
aV44240MO0170007
p1129
aV44240MO0170008
p1130
aV44240MO0170009
p1131
aV44240MO0170010
p1132
aV44240MO0170013
p1133
aV44240MO0170014
p1134
aV44240MO0170015
p1135
aV44527MO0150001
p1136
aV44527MO0150002
p1137
aV44527MO0150003
p1138
aV44527MO0150004
p1139
aV44527MO0160001
p1140
aV44527MO0160002
p1141
aV44527MO0160003
p1142
aV44527MO0160004
p1143
aV44527MO0160006
p1144
aV44527MO0160007
p1145
aV44527MO0160008
p1146
aV44527MO0160010
p1147
aV44527MO0210009
p1148
aV44527MO0210010
p1149
aV44527MO0210011
p1150
aV44527MO0210014
p1151
aV44527MO0210015
p1152
aV44527MO0210016
p1153
aV57451FL0070001
p1154
aV57451FL0070003
p1155
aV57451FL0070004
p1156
aV57451FL0070006
p1157
aV57451FL0070007
p1158
aV57451FL0090006
p1159
aV57451FL0090007
p1160
aV57451FL0090011
p1161
aV57451FL0100006
p1162
aV57451FL0100007
p1163
aV57451FL0100011
p1164
aV61671NC0070001
p1165
aV61671NC0070002
p1166
aV61671NC0070003
p1167
aV61671NC0070004
p1168
aV61671NC0070005
p1169
aV61671NC0070006
p1170
aV61671NC0070007
p1171
aV61671NC0070008
p1172
aV61671NC0070009
p1173
aV61671NC0070010
p1174
aV61671NC0070011
p1175
aV61671NC0070012
p1176
aV61671NC0070013
p1177
aV61671NC0070014
p1178
aV61671NC0070015
p1179
aV61671NC0070016
p1180
aV61671NC0070017
p1181
aV61671NC0070018
p1182
aV61671NC0080001
p1183
aV61671NC0080002
p1184
aV61671NC0080003
p1185
aV61671NC0080007
p1186
aV61671NC0080008
p1187
aV61671NC0080009
p1188
aV61671NC0080011
p1189
aV61671NC0080012
p1190
aV61671NC0080013
p1191
aV64844PA0100001
p1192
aV64844PA0100002
p1193
aV64844PA0100003
p1194
aV64844PA0100004
p1195
aV64844PA0110001
p1196
aV64844PA0110002
p1197
aV81941LA0370016
p1198
aV81941LA0370017
p1199
aV81941LA0370018
p1200
aV81941LA0370019
p1201
aV81941LA0370020
p1202
aV81941LA0370021
p1203
aV81941LA0370022
p1204
aV81941LA0370023
p1205
aV81941LA0430003
p1206
aV81941LA0430004
p1207
aV82824GA0080001
p1208
aV82824GA0080002
p1209
aV82824GA0080003
p1210
aV82824GA0090001
p1211
aV82824GA0090002
p1212
aV82824GA0090003
p1213
aV82824GA0090006
p1214
aV82824GA0090007
p1215
aV82824GA0090008
p1216
aV82824GA0090011
p1217
aV82824GA0090012
p1218
aV82824GA0090013
p1219
aV82824GA0090016
p1220
aV82824GA0090017
p1221
aV82824GA0090018
p1222
aV82824GA0090021
p1223
aV82824GA0090022
p1224
aV82824GA0090023
p1225
aV82824GA0090026
p1226
aV82824GA0090027
p1227
aV82824GA0090028
p1228
aV82824GA0090031
p1229
aV82824GA0090032
p1230
aV82824GA0090033
p1231
aV82824GA0090036
p1232
aV82824GA0090037
p1233
aV82824GA0090038
p1234
aV82824GA0090041
p1235
aV82824GA0090042
p1236
aV82824GA0090043
p1237
aV82824GA0100001
p1238
aV82824GA0100002
p1239
aV82824GA0100003
p1240
aV82824GA0100004
p1241
aV82824GA0100005
p1242
aV82824GA0100006
p1243
aV82824GA0100007
p1244
aV82824GA0100008
p1245
aV82824GA0100009
p1246
aV82824GA0100010
p1247
aV82824GA0100011
p1248
aV82824GA0100012
p1249
aV82824GA0100013
p1250
aV82824GA0100014
p1251
aV82824GA0100015
p1252
aV82824GA0100016
p1253
aV82824GA0100017
p1254
aV82824GA0100018
p1255
aV82824GA0100019
p1256
aV82824GA0100020
p1257
aV82824GA0100021
p1258
aV82824GA0100022
p1259
aV82824GA0100023
p1260
aV82824GA0100024
p1261
aV82824GA0100025
p1262
aV82824GA0100026
p1263
aV82824GA0100027
p1264
aV82824GA0100028
p1265
aV82824GA0100029
p1266
aV82824GA0100030
p1267
aV82824GA0100031
p1268
aV82824GA0100032
p1269
aV82824GA0100033
p1270
aV82824GA0100034
p1271
aV82824GA0100035
p1272
aV82824GA0100036
p1273
aV82824GA0100037
p1274
aV82824GA0100038
p1275
aV82824GA0100039
p1276
aV82824GA0100040
p1277
aV82824GA0100041
p1278
aV82824GA0100042
p1279
aV82824GA0100043
p1280
aV82824GA0100044
p1281
aV82824GA0100045
p1282
aV82824GA0100046
p1283
aV82824GA0100047
p1284
aV82824GA0100048
p1285
aV82824GA0100049
p1286
aV82824GA0100050
p1287
aV82824GA0100051
p1288
aV82824GA0100052
p1289
aV82824GA0100053
p1290
aV82824GA0100054
p1291
aV96601IL0170001
p1292
aV96601IL0170002
p1293
aV96601IL0170003
p1294
aV96601IL0170004
p1295
aV96601IL0190001
p1296
aV96601IL0190002
p1297
aV96601IL0190003
p1298
aV96601IL0190004
p1299
aV96601IL0200001
p1300
aV96601IL0200002
p1301
aV96601IL0200003
p1302
aV96601IL0200004
p1303
aV96601IL0200006
p1304
aV96601IL0200007
p1305
aV96601IL0200008
p1306
aV96601IL0200011
p1307
aV96601IL0210001
p1308
aV96601IL0210002
p1309
aV96601IL0210003
p1310
aV96601IL0210004
p1311
aV96601IL0320007
p1312
aV96601IL0320008
p1313
aV96601IL0320009
p1314
aV96601IL0320010
p1315
aV96601IL0320011
p1316
aV96601IL0320012
p1317
aV96601IL0320021
p1318
aV96601IL0320022
p1319
aV96601IL0330005
p1320
aV96601IL0330009
p1321
aV99663VA0140006
p1322
aV99663VA0140007
p1323
aV99663VA0140008
p1324
aV99663VA0140009
p1325
aV99663VA0140010
p1326
aV99663VA0140011
p1327
aV99663VA0140031
p1328
aV99663VA0140032
p1329
aV99663VA0140033
p1330
aV99663VA0140034
p1331
aV99663VA0140035
p1332
aV99663VA0140036
p1333
aV99663VA0140037
p1334
aV99663VA0140038
p1335
aV99663VA0140039
p1336
aV99663VA0140040
p1337
aV99663VA0140041
p1338
aV99663VA0140042
p1339
aV23603MT0140002
p1340
aV23603MT0140003
p1341
aV23603MT0150005
p1342
aV23603MT0150006
p1343
aV23603MT0150007
p1344
aV23603MT0150008
p1345
aV23603MT0150009
p1346
aV23603MT0150010
p1347
aV23603MT0150011
p1348
aV23603MT0160004
p1349
aV23603MT0160005
p1350
aV23603MT0160006
p1351
aV23603MT0160007
p1352
aV23603MT0160008
p1353
aV23603MT0160009
p1354
aV23603MT0160010
p1355
aV23603MT0160011
p1356
aV23603MT0170004
p1357
aV23603MT0170005
p1358
aV23603MT0170007
p1359
aV23603MT0170008
p1360
aV23603MT0170011
p1361
aV23603MT0170013
p1362
aV23603MT0170014
p1363
aV23603MT0180005
p1364
aV23603MT0180006
p1365
aV23603MT0180007
p1366
aV23603MT0180008
p1367
aV23603MT0180009
p1368
aV23603MT0180010
p1369
aV23603MT0180011
p1370
aV23603MT0180012
p1371
aV23603MT0180013
p1372
aV23603MT0180014
p1373
aV23603MT0180015
p1374
aV23603MT0180016
p1375
aV23603MT0180017
p1376
aV23603MT0180018
p1377
aV23603MT0180019
p1378
aV23603MT0180020
p1379
aV23603MT0180021
p1380
aV23603MT0180022
p1381
aV23603MT0180023
p1382
aV23603MT0180024
p1383
aV23603MT0180025
p1384
aV23603MT0190002
p1385
aV23603MT0200001
p1386
aV23603MT0200002
p1387
aV23603MT0210004
p1388
aV23603MT0210005
p1389
aV23603MT0210007
p1390
aV23603MT0210008
p1391
aV23603MT0210009
p1392
aV23603MT0210010
p1393
aV23603MT0210011
p1394
aV23603MT0210012
p1395
aV23603MT0210013
p1396
aV23603MT0210014
p1397
aV23603MT0210015
p1398
aV23603MT0210016
p1399
aV23603MT0220001
p1400
aV23603MT0220002
p1401
aV23603MT0260001
p1402
aV30969OR0010001
p1403
aV30969OR0020001
p1404
aV30969OR0030001
p1405
aV30969OR0040001
p1406
aV30969OR0210001
p1407
aV73836AK0750001
p1408
aV73836AK0750002
p1409
aV73836AK0750003
p1410
aV73836AK0750004
p1411
aV73836AK0790001
p1412
aV73836AK0790002
p1413
aV73836AK0840001
p1414
aV73836AK0850001
p1415
aV73836AK0850002
p1416
aV73836AK0860001
p1417
aV73836AK0860002
p1418
aV55957PA0270001
p1419
aV55957PA0270007
p1420
aV55957PA0270014
p1421
aV55957PA0270015
p1422
aV55957PA0270016
p1423
aV55957PA0290001
p1424
aV55957PA0290007
p1425
aV55957PA0290008
p1426
aV55957PA0290017
p1427
aV55957PA0290019
p1428
aV55957PA0300001
p1429
aV55957PA0320001
p1430
aV55957PA0330001
p1431
aV55957PA0330002
p1432
aV55957PA0330003
p1433
aV55957PA0350001
p1434
aV55957PA0350004
p1435
aV55957PA0350005
p1436
aV55957PA0360003
p1437
aV63474OR0160001
p1438
aV63474OR0530001
p1439
aV63474OR0500001
p1440
aV31609PA0070001
p1441
aV31609PA0070006
p1442
aV31609PA0070007
p1443
aV31609PA0070009
p1444
aV31609PA0070010
p1445
aV31609PA0140001
p1446
aV31609PA0150001
p1447
aV31609PA0150002
p1448
aV31609PA0150003
p1449
aV31609PA0150004
p1450
aV31609PA0150005
p1451
aV31609PA0150006
p1452
aV31609PA0150007
p1453
aV31609PA0150008
p1454
aV31609PA0150009
p1455
aV31609PA0150010
p1456
aV31609PA0150011
p1457
aV31609PA0150012
p1458
aV31609PA0150013
p1459
aV31609PA0150014
p1460
aV31609PA0150015
p1461
aV31609PA0150017
p1462
aV31609PA0150018
p1463
aV31609PA0150022
p1464
aV31609PA0150023
p1465
aV31609PA0150024
p1466
aV31609PA0150046
p1467
aV31609PA0070002
p1468
aV31609PA0070003
p1469
aV31609PA0070004
p1470
aV31609PA0140002
p1471
aV30751MT0550006
p1472
aV30751MT0550009
p1473
aV30751MT0550010
p1474
aV30751MT0550011
p1475
aV30751MT0550012
p1476
aV30751MT0550013
p1477
aV30751MT0560005
p1478
aV30751MT0560007
p1479
aV30751MT0560014
p1480
aV30751MT0560018
p1481
aV30751MT0560019
p1482
aV30751MT0560020
p1483
aV30751MT0570006
p1484
aV30751MT0570007
p1485
aV30751MT0570008
p1486
aV30751MT0650001
p1487
aV30751MT0650002
p1488
aV30751MT0650003
p1489
aV30751MT0650004
p1490
aV30751MT0650005
p1491
aV30751MT0650006
p1492
aV30751MT0650007
p1493
aV30751MT0650008
p1494
aV11512NC0060017
p1495
aV11512NC0060018
p1496
aV11512NC0060019
p1497
aV11512NC0060020
p1498
aV11512NC0060024
p1499
aV11512NC0060026
p1500
aV11512NC0060027
p1501
aV11512NC0060028
p1502
aV11512NC0100021
p1503
aV11512NC0100022
p1504
aV11512NC0100023
p1505
aV11512NC0100024
p1506
aV11512NC0100028
p1507
aV11512NC0100030
p1508
aV11512NC0100031
p1509
aV11512NC0100032
p1510
aV11512NC0100033
p1511
aV11512NC0100034
p1512
aV11512NC0100035
p1513
aV11512NC0100036
p1514
aV11512NC0100040
p1515
aV11512NC0100042
p1516
aV11512NC0100043
p1517
aV11512NC0100044
p1518
aV11512NC0120001
p1519
aV11512NC0120002
p1520
aV11512NC0120003
p1521
aV11512NC0120004
p1522
aV11512NC0140001
p1523
aV11512NC0140002
p1524
aV11512NC0140003
p1525
aV11512NC0140004
p1526
aV11512NC0140005
p1527
aV11512NC0140006
p1528
aV11512NC0170001
p1529
aV11512NC0170002
p1530
aV11512NC0170003
p1531
aV11512NC0170004
p1532
aV11512NC0170005
p1533
aV11512NC0170006
p1534
aV11512NC0020069
p1535
aV11512NC0020078
p1536
aV11512NC0020105
p1537
aV11512NC0040021
p1538
aV11512NC0040032
p1539
aV11512NC0110013
p1540
aV11512NC0110014
p1541
aV11512NC0110019
p1542
aV11512NC0110020
p1543
aV11512NC0110023
p1544
aV11512NC0110024
p1545
aV11512NC0130055
p1546
aV11512NC0130056
p1547
aV11512NC0130057
p1548
aV11512NC0130058
p1549
aV11512NC0130059
p1550
aV11512NC0130060
p1551
aV11512NC0150001
p1552
aV11512NC0150002
p1553
aV75841NH0090001
p1554
aV75841NH0090002
p1555
aV63474OR0010001
p1556
aV29418TX0140001
p1557
aV29418TX0140002
p1558
aV29418TX0140003
p1559
aV29418TX0140005
p1560
aV29418TX0140006
p1561
aV29418TX0140007
p1562
aV29418TX0150001
p1563
aV29418TX0150002
p1564
aV29418TX0150003
p1565
aV29418TX0150004
p1566
aV29418TX0150005
p1567
aV87226TX0040001
p1568
aV61836WA0050001
p1569
aV61836WA0050002
p1570
aV61836WA0050003
p1571
aV61836WA0050004
p1572
aV61836WA0050005
p1573
aV61836WA0090001
p1574
aV61836WA0090002
p1575
aV61836WA0090003
p1576
aV61836WA0090004
p1577
aV61836WA0100001
p1578
aV61836WA0100002
p1579
aV61836WA0120001
p1580
aV32754WI0010002
p1581
aV32754WI0010011
p1582
aV32754WI0010012
p1583
aV32754WI0010014
p1584
aV37833WI0380005
p1585
aV37833WI0380006
p1586
aV37833WI0380009
p1587
aV37833WI0380010
p1588
aV37833WI0380017
p1589
aV37833WI0380018
p1590
aV37833WI0380019
p1591
aV37833WI0380020
p1592
aV37833WI0380021
p1593
aV37833WI0380022
p1594
aV37833WI0380023
p1595
aV37833WI0380024
p1596
aV37833WI0380027
p1597
aV37833WI0380028
p1598
aV37833WI0380029
p1599
aV37833WI0380030
p1600
aV37833WI0380031
p1601
aV37833WI0380032
p1602
aV37833WI0380035
p1603
aV37833WI0380036
p1604
aV37833WI0380042
p1605
aV37833WI0380044
p1606
aV37833WI0380051
p1607
aV37833WI0380052
p1608
aV37833WI0380053
p1609
aV37833WI0380054
p1610
aV37833WI0380055
p1611
aV37833WI0380056
p1612
aV37833WI0380057
p1613
aV37833WI0380058
p1614
aV37833WI0380059
p1615
aV37833WI0380060
p1616
aV37833WI0380061
p1617
aV37833WI0510001
p1618
aV37833WI0510002
p1619
aV37833WI0510003
p1620
aV37833WI0510004
p1621
aV37833WI0510007
p1622
aV37833WI0510008
p1623
aV37833WI0510009
p1624
aV37833WI0510010
p1625
aV37833WI0510011
p1626
aV37833WI0510012
p1627
aV37833WI0510013
p1628
aV37833WI0510014
p1629
aV37833WI0510017
p1630
aV37833WI0510018
p1631
aV37833WI0510019
p1632
aV37833WI0510020
p1633
aV37833WI0510021
p1634
aV37833WI0510022
p1635
aV37833WI0510024
p1636
aV37833WI0510025
p1637
aV37833WI0510030
p1638
aV37833WI0510032
p1639
aV37833WI0510034
p1640
aV37833WI0510035
p1641
aV37833WI0510036
p1642
aV37833WI0510037
p1643
aV37833WI0510038
p1644
aV37833WI0510039
p1645
aV37833WI0510040
p1646
aV37833WI0510041
p1647
aV37833WI0510042
p1648
aV37833WI0510043
p1649
aV37833WI0510044
p1650
aV37833WI0540001
p1651
aV37833WI0540002
p1652
aV37833WI0540003
p1653
aV37833WI0540004
p1654
aV37833WI0540005
p1655
aV37833WI0540006
p1656
aV37833WI0540007
p1657
aV37833WI0540008
p1658
aV37833WI0540009
p1659
aV37833WI0540010
p1660
aV37833WI0540011
p1661
aV37833WI0540014
p1662
aV38166WI0140001
p1663
aV38166WI0140002
p1664
aV38166WI0140004
p1665
aV38166WI0140005
p1666
aV38166WI0140006
p1667
aV38166WI0140007
p1668
aV38166WI0140010
p1669
aV38166WI0140011
p1670
aV38166WI0140012
p1671
aV38166WI0140013
p1672
aV38166WI0140014
p1673
aV38166WI0140015
p1674
aV38166WI0140016
p1675
aV38166WI0140017
p1676
aV38166WI0140018
p1677
aV38166WI0140021
p1678
aV38166WI0140022
p1679
aV38166WI0140023
p1680
aV38166WI0150001
p1681
aV38166WI0150002
p1682
aV38166WI0150003
p1683
aV38166WI0150004
p1684
aV38166WI0150005
p1685
aV38166WI0150007
p1686
aV38166WI0150010
p1687
aV38166WI0150011
p1688
aV38166WI0150012
p1689
aV38166WI0150013
p1690
aV38166WI0150014
p1691
aV38166WI0150015
p1692
aV38166WI0150016
p1693
aV38166WI0150017
p1694
aV38166WI0150018
p1695
aV38166WI0150021
p1696
aV38166WI0150022
p1697
aV38166WI0150023
p1698
aV38166WI0160001
p1699
aV38166WI0160002
p1700
aV38166WI0160003
p1701
aV38166WI0160004
p1702
aV38166WI0160005
p1703
aV38166WI0160007
p1704
aV38166WI0160010
p1705
aV38166WI0160011
p1706
aV38166WI0160012
p1707
aV38166WI0160013
p1708
aV38166WI0160014
p1709
aV38166WI0160015
p1710
aV38166WI0160016
p1711
aV38166WI0160017
p1712
aV38166WI0160018
p1713
aV38166WI0160021
p1714
aV38166WI0160022
p1715
aV38166WI0160023
p1716
aV38166WI0170001
p1717
aV38166WI0170002
p1718
aV38166WI0170003
p1719
aV38166WI0170004
p1720
aV38166WI0170006
p1721
aV38166WI0170007
p1722
aV38166WI0170008
p1723
aV38166WI0170009
p1724
aV38166WI0170010
p1725
aV38166WI0180001
p1726
aV38166WI0180002
p1727
aV38166WI0180003
p1728
aV38166WI0180004
p1729
aV38166WI0180006
p1730
aV38166WI0180007
p1731
aV38166WI0180008
p1732
aV38166WI0180009
p1733
aV38166WI0180010
p1734
aV38166WI0190001
p1735
aV38166WI0190002
p1736
aV38166WI0190003
p1737
aV38166WI0190004
p1738
aV38166WI0190006
p1739
aV38166WI0190007
p1740
aV38345WI0010063
p1741
aV38345WI0010095
p1742
aV38345WI0010097
p1743
aV38345WI0010098
p1744
aV38345WI0010099
p1745
aV38345WI0010100
p1746
aV38345WI0010106
p1747
aV38345WI0010108
p1748
aV38345WI0010109
p1749
aV38345WI0010119
p1750
aV38345WI0010120
p1751
aV38345WI0010121
p1752
aV38345WI0010122
p1753
aV38345WI0010123
p1754
aV38345WI0010124
p1755
aV38345WI0010125
p1756
aV38345WI0080018
p1757
aV38345WI0080019
p1758
aV38345WI0080029
p1759
aV38345WI0080030
p1760
aV38345WI0080031
p1761
aV38345WI0080032
p1762
aV38345WI0060013
p1763
aV38345WI0060045
p1764
aV38345WI0060047
p1765
aV38345WI0060048
p1766
aV38345WI0060049
p1767
aV38345WI0060050
p1768
aV38345WI0060056
p1769
aV38345WI0060058
p1770
aV38345WI0060059
p1771
aV38345WI0060069
p1772
aV38345WI0060070
p1773
aV38345WI0060071
p1774
aV38345WI0060072
p1775
aV38345WI0060073
p1776
aV38345WI0060074
p1777
aV38345WI0060075
p1778
aV27833IL0140001
p1779
aV27833IL0140002
p1780
aV27833IL0140003
p1781
aV27833IL0140005
p1782
aV27833IL0140006
p1783
aV27833IL0150001
p1784
aV27833IL0150002
p1785
aV27833IL0150003
p1786
aV68432IL0010013
p1787
aV35065IN0010018
p1788
aV76179IN0110001
p1789
aV76179IN0110002
p1790
aV76179IN0110003
p1791
aV76179IN0110005
p1792
aV76179IN0110006
p1793
aV76179IN0110007
p1794
aV76179IN0120001
p1795
aV76179IN0120002
p1796
aV76179IN0120004
p1797
aV76179IN0120005
p1798
aV76179IN0120006
p1799
aV76179IN0130001
p1800
aV76179IN0130002
p1801
aV76179IN0130004
p1802
aV76179IN0130005
p1803
aV76179IN0130006
p1804
aV31234MA0370001
p1805
aV31234MA0370003
p1806
aV31234MA0370004
p1807
aV31234MA0370010
p1808
aV31234MA0390001
p1809
aV31234MA0390003
p1810
aV31234MA0390004
p1811
aV31234MA0390010
p1812
aV90714MS0010001
p1813
aV90714MS0010002
p1814
aV90714MS0010003
p1815
aV90714MS0010005
p1816
aV90714MS0010006
p1817
aV90714MS0010007
p1818
aV90714MS0020001
p1819
aV90714MS0020002
p1820
aV90714MS0020003
p1821
aV90714MS0020004
p1822
aV90714MS0020005
p1823
aV90714MS0030001
p1824
aV90714MS0030002
p1825
aV90714MS0030003
p1826
aV90714MS0030004
p1827
aV90714MS0030005
p1828
aV94237MS0010018
p1829
aV41047OH0010004
p1830
aV41047OH0010017
p1831
aV41047OH0010018
p1832
aV41047OH0010019
p1833
aV41047OH0010021
p1834
aV41047OH0010022
p1835
aV41047OH0020017
p1836
aV41047OH0020018
p1837
aV41047OH0020019
p1838
aV41047OH0020020
p1839
aV41047OH0020021
p1840
aV71287OR0420001
p1841
aV71287OR0420002
p1842
aV71287OR0420003
p1843
aV71287OR0420004
p1844
aV71287OR0420005
p1845
aV71287OR0420010
p1846
aV71287OR0420011
p1847
aV71287OR0420012
p1848
aV71287OR0420014
p1849
aV71287OR0420015
p1850
aV71287OR0430001
p1851
aV71287OR0430003
p1852
aV71287OR0430005
p1853
aV71287OR0430007
p1854
aV71287OR0430009
p1855
aV71287OR0430011
p1856
aV71287OR0430012
p1857
aV71287OR0430014
p1858
aV71287OR0430016
p1859
aV71287OR0430018
p1860
aV71287OR0430020
p1861
aV71287OR0430022
p1862
aV71287OR0570003
p1863
aV71287OR0570007
p1864
aV71287OR0570013
p1865
aV85804OR0530001
p1866
aV85804OR0530002
p1867
aV85804OR0530003
p1868
aV85804OR0540001
p1869
aV85804OR0540002
p1870
aV85804OR0550001
p1871
aV85804OR0560001
p1872
aV85804OR0570001
p1873
aV85804OR0570002
p1874
aV27811KS0020001
p1875
aV27811KS0020002
p1876
aV27811KS0020003
p1877
aV27811KS0020013
p1878
aV27811KS0020017
p1879
aV33670NV1050001
p1880
aV33670NV1050002
p1881
aV33670NV1050003
p1882
aV33670NV1050004
p1883
aV33670NV1050005
p1884
aV33670NV1050006
p1885
aV33670NV1050007
p1886
aV33670NV1050008
p1887
aV33670NV1050009
p1888
aV33670NV1050010
p1889
aV33670NV1050011
p1890
aV33670NV1050012
p1891
aV33670NV1050013
p1892
aV33670NV1050014
p1893
aV33670NV1050015
p1894
aV60156NV0230018
p1895
aV60156NV0230019
p1896
aV60156NV0230020
p1897
aV60156NV0230022
p1898
aV60156NV0230025
p1899
aV60156NV0230026
p1900
aV60156NV0230027
p1901
aV60156NV0230028
p1902
aV60156NV0230029
p1903
aV60156NV0230030
p1904
aV60156NV0230031
p1905
aV60156NV0230032
p1906
aV60156NV0230033
p1907
aV60156NV0230034
p1908
aV60156NV0230035
p1909
aV60156NV0240007
p1910
aV60156NV0240008
p1911
aV60156NV0240009
p1912
aV60156NV0390003
p1913
aV60156NV0390004
p1914
aV29276OH0740017
p1915
aV29276OH0740018
p1916
aV29276OH0740019
p1917
aV29276OH0740020
p1918
aV29276OH0740021
p1919
aV29276OH0740022
p1920
aV29276OH0740023
p1921
aV29276OH0740024
p1922
aV29276OH0740025
p1923
aV29276OH0740026
p1924
aV29276OH0740027
p1925
aV29276OH0740028
p1926
aV29276OH0740029
p1927
aV29276OH0740030
p1928
aV29276OH0740031
p1929
aV29276OH0750112
p1930
aV29276OH0750113
p1931
aV29276OH0750115
p1932
aV29276OH0920001
p1933
aV29276OH0920002
p1934
aV29276OH0920003
p1935
aV29276OH0920005
p1936
aV29276OH0920006
p1937
aV29276OH0920007
p1938
aV29276OH0920008
p1939
aV29276OH0920009
p1940
aV29276OH0920010
p1941
aV29276OH0920011
p1942
aV29276OH0920012
p1943
aV29276OH0920013
p1944
aV29276OH0920014
p1945
aV29276OH0920015
p1946
aV29276OH0920016
p1947
aV29276OH0920017
p1948
aV29276OH0920018
p1949
aV29276OH0920019
p1950
aV29276OH0920020
p1951
aV29276OH0920021
p1952
aV29276OH0920022
p1953
aV29276OH0920023
p1954
aV29276OH0920024
p1955
aV29276OH0920025
p1956
aV88380VA0720015
p1957
aV88380VA0720016
p1958
aV88380VA0720017
p1959
aV88380VA0720018
p1960
aV88380VA0720019
p1961
aV88380VA0720020
p1962
aV88380VA0720021
p1963
aV88380VA0720022
p1964
aV88380VA0720023
p1965
aV88380VA0720024
p1966
aV88380VA0720025
p1967
aV88380VA0720026
p1968
aV88380VA0720027
p1969
aV88380VA0730013
p1970
aV88380VA0730014
p1971
aV88380VA0730015
p1972
aV88380VA0730016
p1973
aV88380VA0730017
p1974
aV88380VA0730018
p1975
aV88380VA0730019
p1976
aV88380VA0730020
p1977
aV88380VA0730021
p1978
aV88380VA0730022
p1979
aV88380VA0730023
p1980
aV88380VA0730024
p1981
aV88380VA0730025
p1982
aV88380VA0730026
p1983
aV88380VA0730027
p1984
aV88380VA0730028
p1985
aV88380VA0730029
p1986
aV88380VA0730030
p1987
aV88380VA0730031
p1988
aV88380VA0730032
p1989
aV88380VA0730033
p1990
aV88380VA0730034
p1991
aV88380VA0730035
p1992
aV88380VA0730036
p1993
aV88380VA0730037
p1994
aV88380VA0730038
p1995
aV88380VA0730039
p1996
aV88380VA0730040
p1997
aV88380VA0730041
p1998
aV88380VA0730042
p1999
aV88380VA0730043
p2000
aV88380VA0730044
p2001
aV88380VA0730045
p2002
aV88380VA0730046
p2003
aV88380VA0730047
p2004
aV88380VA0730048
p2005
aV88380VA0730049
p2006
aV88380VA0730050
p2007
aV88380VA0730051
p2008
aV88380VA0730052
p2009
aV88380VA0730053
p2010
aV88380VA0730054
p2011
aV88380VA0730055
p2012
aV88380VA0730056
p2013
aV88380VA0730057
p2014
aV88380VA0730058
p2015
aV88380VA0730059
p2016
aV88380VA0730060
p2017
aV88380VA0730061
p2018
aV88380VA0730064
p2019
aV88380VA0730065
p2020
aV88380VA0730066
p2021
aV88380VA0730067
p2022
aV88380VA0730068
p2023
aV88380VA0730069
p2024
aV88380VA0730070
p2025
aV88380VA0730071
p2026
aV88380VA0730072
p2027
aV88380VA0730073
p2028
aV88380VA0730074
p2029
aV88380VA0730075
p2030
aV88380VA0880005
p2031
aV88380VA0880006
p2032
aV88380VA0890001
p2033
aV88380VA0890002
p2034
aV88380VA0890003
p2035
aV88380VA0890004
p2036
aV88380VA0890005
p2037
aV88380VA0890006
p2038
aV88380VA0890007
p2039
aV88380VA0890008
p2040
aV88380VA0890009
p2041
aV88380VA0890010
p2042
aV88380VA0890011
p2043
aV88380VA0890012
p2044
aV79475WI0340014
p2045
aV79475WI0340015
p2046
aV79475WI0340016
p2047
aV79475WI0340017
p2048
aV79475WI0340018
p2049
aV79475WI0340020
p2050
aV79475WI0340021
p2051
aV79475WI0340022
p2052
aV79475WI0340023
p2053
aV79475WI0340025
p2054
aV79475WI0340026
p2055
aV79475WI0340027
p2056
aV79475WI0500003
p2057
aV79475WI0500004
p2058
aV27651IA0050001
p2059
aV27651IA0050002
p2060
aV27651IA0050003
p2061
aV27651IA0050004
p2062
aV27651IA0050005
p2063
aV27651IA0050006
p2064
aV27651IA0050007
p2065
aV27651IA0050008
p2066
aV27651IA0050009
p2067
aV27651IA0050010
p2068
aV27651IA0050014
p2069
aV27651IA0060001
p2070
aV27651IA0060002
p2071
aV27651IA0060003
p2072
aV27651IA0060004
p2073
aV27651IA0060005
p2074
aV27651IA0070001
p2075
aV27651IA0070002
p2076
aV27651IA0070003
p2077
aV27651IA0070004
p2078
aV27651IA0070005
p2079
aV27651IA0070006
p2080
aV27651IA0070007
p2081
aV27651IA0070008
p2082
aV27651IA0070009
p2083
aV27651IA0070010
p2084
aV27651IA0080001
p2085
aV27651IA0080002
p2086
aV27651IA0080003
p2087
aV27651IA0080004
p2088
aV70373MN0030001
p2089
aV70373MN0030002
p2090
aV70373MN0030003
p2091
aV70373MN0030004
p2092
aV70373MN0030005
p2093
aV70373MN0030006
p2094
aV70373MN0030007
p2095
aV70373MN0030008
p2096
aV70373MN0030009
p2097
aV70373MN0030010
p2098
aV91058WI0050001
p2099
aV91058WI0050002
p2100
aV91058WI0050003
p2101
aV91058WI0050004
p2102
aV91058WI0050005
p2103
aV91058WI0050006
p2104
aV91058WI0050007
p2105
aV91058WI0050008
p2106
aV91058WI0050009
p2107
aV91058WI0050010
p2108
aV91058WI0050014
p2109
aV91058WI0060001
p2110
aV91058WI0060002
p2111
aV91058WI0060003
p2112
aV91058WI0060004
p2113
aV91058WI0060005
p2114
aV91058WI0070001
p2115
aV91058WI0070002
p2116
aV91058WI0070003
p2117
aV91058WI0070004
p2118
aV91058WI0070005
p2119
aV91058WI0070006
p2120
aV91058WI0070007
p2121
aV91058WI0070008
p2122
aV91058WI0070009
p2123
aV91058WI0070010
p2124
aV91058WI0080001
p2125
aV91058WI0080002
p2126
aV91058WI0080003
p2127
aV91058WI0080004
p2128
aV77606NJ0040001
p2129
aV77606NJ0040002
p2130
aV77606NJ0040057
p2131
aV77606NJ0040065
p2132
aV77606NJ0040066
p2133
aV77606NJ0040069
p2134
aV77606NJ0050001
p2135
aV77606NJ0050016
p2136
aV77606NJ0050017
p2137
aV63474OR0140001
p2138
aV63474OR0010002
p2139
aV62141AR0080002
p2140
aV62141AR0080005
p2141
aV62141AR0080007
p2142
aV62141AR0100005
p2143
aV62141AR0100007
p2144
aV46944AL0380001
p2145
aV46944AL0410001
p2146
aV46944AL0420001
p2147
aV46944AL0430001
p2148
aV46944AL0460001
p2149
aV46944AL0470001
p2150
aV46944AL0560001
p2151
aV46944AL0570001
p2152
aV46944AL0620001
p2153
aV46944AL0630001
p2154
aV46944AL0280001
p2155
aV46944AL0310001
p2156
aV46944AL0340001
p2157
aV46944AL0370001
p2158
aV37903AR0070001
p2159
aV37903AR0070008
p2160
aV70525AR0070001
p2161
aV70525AR0070002
p2162
aV70525AR0070003
p2163
aV70525AR0070006
p2164
aV70525AR0070050
p2165
aV70525AR0070151
p2166
aV70525AR0120028
p2167
aV70525AR0120037
p2168
aV70525AR0120131
p2169
aV70525AR0120215
p2170
aV70525AR0120216
p2171
aV70525AR0120219
p2172
aV70525AR0130001
p2173
aV70525AR0130002
p2174
aV70525AR0130003
p2175
aV70525AR0130004
p2176
aV70525AR0130005
p2177
aV70525AR0140001
p2178
aV70525AR0140002
p2179
aV70525AR0140003
p2180
aV70525AR0140004
p2181
aV70525AR0140005
p2182
aV75293AR0250001
p2183
aV75293AR0260001
p2184
aV75293AR0270001
p2185
aV75293AR0280001
p2186
aV75293AR0290001
p2187
aV75293AR0310001
p2188
aV75293AR0320001
p2189
aV75293AR0330001
p2190
aV75293AR0350001
p2191
aV75293AR0370001
p2192
aV75293AR0450001
p2193
aV75293AR0510001
p2194
aV75293AR1180001
p2195
aV75293AR1190001
p2196
aV65441AZ0050001
p2197
aV65441AZ0050002
p2198
aV65441AZ0050003
p2199
aV65441AZ0050004
p2200
aV65441AZ0060001
p2201
aV65441AZ0060002
p2202
aV65441AZ0070001
p2203
aV65441AZ0070002
p2204
aV65441AZ0070003
p2205
aV65441AZ0070004
p2206
aV65441AZ0080001
p2207
aV65441AZ0080002
p2208
aV65441AZ0090001
p2209
aV65441AZ0090002
p2210
aV65441AZ0090003
p2211
aV65441AZ0090004
p2212
aV65441AZ0100001
p2213
aV65441AZ0100002
p2214
aV53901AZ0790001
p2215
aV53901AZ0790002
p2216
aV53901AZ0790003
p2217
aV53901AZ0790004
p2218
aV53901AZ0790005
p2219
aV53901AZ0790006
p2220
aV53901AZ0790007
p2221
aV53901AZ0790008
p2222
aV53901AZ0790009
p2223
aV53901AZ0790010
p2224
aV53901AZ0790011
p2225
aV53901AZ0790012
p2226
aV53901AZ0800001
p2227
aV53901AZ0800002
p2228
aV53901AZ0800003
p2229
aV53901AZ0800004
p2230
aV53901AZ0800005
p2231
aV53901AZ0800006
p2232
aV53901AZ0810001
p2233
aV53901AZ0810002
p2234
aV53901AZ0810003
p2235
aV53901AZ0810004
p2236
aV53901AZ0810005
p2237
aV53901AZ0820001
p2238
aV53901AZ0820002
p2239
aV53901AZ0820003
p2240
aV53901AZ1080001
p2241
aV53901AZ1080003
p2242
aV53901AZ1080004
p2243
aV53901AZ1090001
p2244
aV53901AZ1090003
p2245
aV53901AZ1090004
p2246
aV53901AZ1140001
p2247
aV53901AZ1140003
p2248
aV53901AZ1140004
p2249
aV53901AZ1140005
p2250
aV53901AZ1150001
p2251
aV53901AZ1150003
p2252
aV53901AZ1150004
p2253
aV53901AZ1150005
p2254
aV53901AZ1170001
p2255
aV53901AZ1180001
p2256
aV53901AZ1300001
p2257
aV53901AZ1300002
p2258
aV53901AZ1300003
p2259
aV53901AZ1300004
p2260
aV53901AZ1300005
p2261
aV53901AZ1300006
p2262
aV53901AZ1300007
p2263
aV53901AZ1300008
p2264
aV53901AZ1300009
p2265
aV53901AZ1300010
p2266
aV53901AZ1300011
p2267
aV53901AZ1300012
p2268
aV53901AZ1310001
p2269
aV53901AZ1310002
p2270
aV53901AZ1310003
p2271
aV53901AZ1310004
p2272
aV53901AZ1310005
p2273
aV53901AZ1310006
p2274
aV53901AZ1320001
p2275
aV53901AZ1320002
p2276
aV53901AZ1320003
p2277
aV53901AZ1320004
p2278
aV53901AZ1320005
p2279
aV53901AZ1330001
p2280
aV53901AZ1330002
p2281
aV53901AZ1330003
p2282
aV53901AZ1340001
p2283
aV53901AZ1340002
p2284
aV53901AZ1350001
p2285
aV53901AZ1350002
p2286
aV53901AZ1350003
p2287
aV53901AZ1360001
p2288
aV70239AZ0010045
p2289
aV70239AZ0010046
p2290
aV70239AZ0010047
p2291
aV70239AZ0010048
p2292
aV70239AZ0010049
p2293
aV70239AZ0010050
p2294
aV70239AZ0010051
p2295
aV70239AZ0010052
p2296
aV70239AZ0010053
p2297
aV70239AZ0010054
p2298
aV70239AZ0010055
p2299
aV70239AZ0010056
p2300
aV70239AZ0010057
p2301
aV70239AZ0010058
p2302
aV70239AZ0010059
p2303
aV70239AZ0010063
p2304
aV70239AZ0010064
p2305
aV70239AZ0010065
p2306
aV70239AZ0010066
p2307
aV70239AZ0010067
p2308
aV70239AZ0010068
p2309
aV70239AZ0010069
p2310
aV70239AZ0010070
p2311
aV70239AZ0010071
p2312
aV70239AZ0010072
p2313
aV70239AZ0010074
p2314
aV70239AZ0010075
p2315
aV70239AZ0010076
p2316
aV70239AZ0010077
p2317
aV70239AZ0010078
p2318
aV70239AZ0010079
p2319
aV70239AZ0010080
p2320
aV51485AZ0160003
p2321
aV51485AZ0160004
p2322
aV51485AZ0160005
p2323
aV51485AZ0160007
p2324
aV51485AZ0160008
p2325
aV51485AZ0160031
p2326
aV51485AZ0160032
p2327
aV91450AZ0080026
p2328
aV91450AZ0080027
p2329
aV91450AZ0080029
p2330
aV91450AZ0080030
p2331
aV91450AZ0080031
p2332
aV91450AZ0080032
p2333
aV91450AZ0090025
p2334
aV91450AZ0090026
p2335
aV91450AZ0160005
p2336
aV91450AZ0160019
p2337
aV76168DE0390001
p2338
aV76168DE0390002
p2339
aV76168DE0400001
p2340
aV76168DE0410002
p2341
aV76168DE0410004
p2342
aV76168DE0410006
p2343
aV76168DE0410008
p2344
aV76168DE0410010
p2345
aV76168DE0410011
p2346
aV76168DE0410012
p2347
aV76168DE0410013
p2348
aV76168DE0420001
p2349
aV76168DE0420002
p2350
aV76168DE0420004
p2351
aV76168DE0430001
p2352
aV76168DE0430002
p2353
aV76168DE0500004
p2354
aV76168DE0510011
p2355
aV76168DE0560001
p2356
aV76168DE0560002
p2357
aV76168DE0580001
p2358
aV76168DE0580002
p2359
aV76168DE0590001
p2360
aV76168DE0590003
p2361
aV76168DE0610001
p2362
aV76168DE0610002
p2363
aV76168DE0610003
p2364
aV76168DE0620001
p2365
aV76168DE0630001
p2366
aV76168DE0640001
p2367
aV76168DE0640002
p2368
aV76168DE0640003
p2369
aV76168DE0640004
p2370
aV16842FL0010001
p2371
aV16842FL0010002
p2372
aV16842FL0070073
p2373
aV16842FL0070084
p2374
aV16842FL0070100
p2375
aV16842FL0070102
p2376
aV16842FL0070106
p2377
aV16842FL0070108
p2378
aV16842FL0070110
p2379
aV16842FL0070114
p2380
aV16842FL0070120
p2381
aV16842FL0120033
p2382
aV16842FL0120044
p2383
aV16842FL0120060
p2384
aV16842FL0120062
p2385
aV16842FL0120066
p2386
aV16842FL0120068
p2387
aV16842FL0120070
p2388
aV16842FL0120072
p2389
aV16842FL0120076
p2390
aV30252FL0010001
p2391
aV30252FL0010002
p2392
aV30252FL0020033
p2393
aV30252FL0020044
p2394
aV30252FL0020060
p2395
aV30252FL0020062
p2396
aV30252FL0020066
p2397
aV30252FL0020068
p2398
aV30252FL0020070
p2399
aV30252FL0020074
p2400
aV30252FL0070001
p2401
aV30252FL0070003
p2402
aV30252FL0070005
p2403
aV30252FL0070007
p2404
aV30252FL0070009
p2405
aV56503FL1300001
p2406
aV56503FL1300003
p2407
aV56503FL1320001
p2408
aV56503FL1320003
p2409
aV56503FL1330001
p2410
aV56503FL1330002
p2411
aV56503FL1380001
p2412
aV56503FL1380002
p2413
aV56503FL1390001
p2414
aV56503FL1390002
p2415
aV56503FL1400001
p2416
aV56503FL1400002
p2417
aV56503FL1410001
p2418
aV56503FL1410002
p2419
aV56503FL1460001
p2420
aV56503FL1460002
p2421
aV56503FL1470001
p2422
aV56503FL1470002
p2423
aV56503FL1480001
p2424
aV56503FL1480002
p2425
aV56503FL1550001
p2426
aV56503FL1550002
p2427
aV56503FL1600001
p2428
aV56503FL1600002
p2429
aV56503FL1620001
p2430
aV56503FL1620002
p2431
aV56503FL1630001
p2432
aV56503FL1630002
p2433
aV56503FL1680001
p2434
aV56503FL1680002
p2435
aV56503FL1690001
p2436
aV56503FL1690002
p2437
aV56503FL1700001
p2438
aV56503FL1700002
p2439
aV56503FL1770001
p2440
aV56503FL1770002
p2441
aV56503FL1800003
p2442
aV56503FL1800004
p2443
aV56503FL1810003
p2444
aV56503FL1810004
p2445
aV56503FL1840003
p2446
aV56503FL1840004
p2447
aV56503FL1850003
p2448
aV56503FL1850004
p2449
aV56503FL1880003
p2450
aV56503FL1880004
p2451
aV56503FL1960001
p2452
aV56503FL1960002
p2453
aV56503FL1970001
p2454
aV56503FL1970002
p2455
aV56503FL1980001
p2456
aV56503FL1980002
p2457
aV56503FL1990001
p2458
aV56503FL1990002
p2459
aV56503FL2000001
p2460
aV56503FL2000002
p2461
aV56503FL2010001
p2462
aV56503FL2010002
p2463
aV56503FL2020001
p2464
aV56503FL2020002
p2465
aV56503FL2030001
p2466
aV56503FL2030002
p2467
aV56503FL2040001
p2468
aV56503FL2040002
p2469
aV56503FL2060001
p2470
aV56503FL2060002
p2471
aV56503FL2080001
p2472
aV56503FL2080002
p2473
aV56503FL2090001
p2474
aV56503FL2090002
p2475
aV56503FL2120001
p2476
aV56503FL2120002
p2477
aV56503FL2130001
p2478
aV56503FL2130002
p2479
aV56503FL2140001
p2480
aV56503FL2140002
p2481
aV56503FL2150001
p2482
aV56503FL2150002
p2483
aV56503FL2160001
p2484
aV56503FL2160002
p2485
aV56503FL2170001
p2486
aV56503FL2170002
p2487
aV56503FL2180001
p2488
aV56503FL2180002
p2489
aV56503FL2190001
p2490
aV56503FL2190002
p2491
aV56503FL2200001
p2492
aV56503FL2200002
p2493
aV56503FL2210001
p2494
aV56503FL2210002
p2495
aV56503FL2220001
p2496
aV56503FL2220002
p2497
aV56503FL2230001
p2498
aV56503FL2230002
p2499
aV56503FL2240001
p2500
aV56503FL2240002
p2501
aV56503FL2250001
p2502
aV56503FL2250002
p2503
aV56503FL2260001
p2504
aV56503FL2260002
p2505
aV56503FL2270001
p2506
aV56503FL2270002
p2507
aV56503FL2280001
p2508
aV56503FL2280002
p2509
aV56503FL2290001
p2510
aV56503FL2290002
p2511
aV56503FL2300001
p2512
aV56503FL2300002
p2513
aV56503FL2310001
p2514
aV56503FL2310002
p2515
aV56503FL2320001
p2516
aV56503FL2320002
p2517
aV56503FL2330001
p2518
aV56503FL2330002
p2519
aV56503FL2340001
p2520
aV56503FL2340002
p2521
aV56503FL2350001
p2522
aV56503FL2350002
p2523
aV56503FL2360001
p2524
aV56503FL2360002
p2525
aV56503FL2370001
p2526
aV56503FL2370002
p2527
aV56503FL2380001
p2528
aV56503FL2380002
p2529
aV56503FL2390001
p2530
aV56503FL2390002
p2531
aV56503FL2400001
p2532
aV56503FL2400002
p2533
aV56503FL2410001
p2534
aV56503FL2410002
p2535
aV56503FL2420001
p2536
aV56503FL2420002
p2537
aV56503FL2430001
p2538
aV56503FL2430002
p2539
aV56503FL2440001
p2540
aV56503FL2440002
p2541
aV56503FL2450001
p2542
aV56503FL2450002
p2543
aV56503FL2460001
p2544
aV56503FL2460002
p2545
aV56503FL2470001
p2546
aV56503FL2470002
p2547
aV56503FL2480001
p2548
aV56503FL2480002
p2549
aV56503FL2490001
p2550
aV56503FL2490002
p2551
aV56503FL2500001
p2552
aV56503FL2500002
p2553
aV56503FL2510001
p2554
aV56503FL2510002
p2555
aV56503FL2520001
p2556
aV56503FL2520002
p2557
aV56503FL2530001
p2558
aV56503FL2530002
p2559
aV56503FL2540001
p2560
aV56503FL2540002
p2561
aV56503FL2550001
p2562
aV56503FL2550002
p2563
aV56503FL2560001
p2564
aV56503FL2560002
p2565
aV56503FL2570001
p2566
aV56503FL2570002
p2567
aV56503FL2580001
p2568
aV56503FL2580002
p2569
aV56503FL2590001
p2570
aV56503FL2590002
p2571
aV56503FL2600001
p2572
aV56503FL2600002
p2573
aV56503FL2610001
p2574
aV56503FL2610002
p2575
aV56503FL2620001
p2576
aV56503FL2620002
p2577
aV56503FL2630001
p2578
aV56503FL2630002
p2579
aV56503FL2640001
p2580
aV56503FL2640002
p2581
aV56503FL2650001
p2582
aV56503FL2650002
p2583
aV56503FL2660001
p2584
aV56503FL2660002
p2585
aV83761GA0040001
p2586
aV83761GA0040002
p2587
aV83761GA0040003
p2588
aV83761GA0040004
p2589
aV83761GA0040005
p2590
aV83761GA0040006
p2591
aV83761GA0040007
p2592
aV83761GA0040008
p2593
aV83761GA0040009
p2594
aV83761GA0040010
p2595
aV83761GA0040011
p2596
aV83761GA0040012
p2597
aV83761GA0040013
p2598
aV83761GA0040014
p2599
aV83761GA0040015
p2600
aV83761GA0040016
p2601
aV83761GA0040017
p2602
aV83761GA0040019
p2603
aV83761GA0040020
p2604
aV83761GA0040021
p2605
aV83761GA0050001
p2606
aV83761GA0050002
p2607
aV83761GA0050003
p2608
aV83761GA0050004
p2609
aV83761GA0050005
p2610
aV83761GA0050006
p2611
aV83761GA0050007
p2612
aV83761GA0050008
p2613
aV83761GA0050009
p2614
aV83761GA0050010
p2615
aV83761GA0050011
p2616
aV83761GA0050012
p2617
aV83761GA0050013
p2618
aV83761GA0050014
p2619
aV83761GA0050015
p2620
aV83761GA0050016
p2621
aV83761GA0050017
p2622
aV83761GA0050018
p2623
aV83761GA0050019
p2624
aV83761GA0050020
p2625
aV83761GA0050021
p2626
aV83761GA0050022
p2627
aV18350HI0880001
p2628
aV18350HI0880003
p2629
aV18350HI0880007
p2630
aV18350HI0880013
p2631
aV18350HI0880017
p2632
aV18350HI0880029
p2633
aV18350HI0880033
p2634
aV18350HI0890003
p2635
aV18350HI0890004
p2636
aV18350HI0890005
p2637
aV18350HI0890006
p2638
aV58594MI0010002
p2639
aV58594MI0020002
p2640
aV27357FL1820001
p2641
aV27357FL1820002
p2642
aV27357FL1820004
p2643
aV27357FL1820006
p2644
aV27357FL1820007
p2645
aV27357FL1820009
p2646
aV27357FL1820011
p2647
aV27357FL1820012
p2648
aV27357FL1820013
p2649
aV27357FL1820015
p2650
aV27357FL1820016
p2651
aV27357FL1820017
p2652
aV27357FL1820018
p2653
aV27357FL1820022
p2654
aV27357FL1820023
p2655
aV27357FL1820024
p2656
aV27357FL1820025
p2657
aV27357FL1820026
p2658
aV27357FL1820028
p2659
aV27357FL1820029
p2660
aV27357FL1820030
p2661
aV27357FL1830001
p2662
aV27357FL1830002
p2663
aV27357FL1830004
p2664
aV27357FL1830007
p2665
aV27357FL1830009
p2666
aV27357FL1830011
p2667
aV27357FL1830013
p2668
aV27357FL1830015
p2669
aV27357FL1830017
p2670
aV27357FL1830018
p2671
aV27357FL1830022
p2672
aV27357FL1830024
p2673
aV27357FL1830025
p2674
aV27357FL1830026
p2675
aV27357FL1840001
p2676
aV27357FL1840003
p2677
aV27357FL1840004
p2678
aV27357FL1840005
p2679
aV27357FL1840006
p2680
aV27357FL1840008
p2681
aV27357FL1840009
p2682
aV27357FL1840010
p2683
aV27357FL1840012
p2684
aV27357FL1840016
p2685
aV27357FL1840017
p2686
aV27357FL1840018
p2687
aV27357FL1840020
p2688
aV27357FL1840021
p2689
aV27357FL1840023
p2690
aV27357FL1840024
p2691
aV27357FL1840028
p2692
aV27357FL1840029
p2693
aV27357FL1840030
p2694
aV27357FL1840034
p2695
aV27357FL1840036
p2696
aV27357FL1840038
p2697
aV27357FL1840040
p2698
aV27357FL1840041
p2699
aV27357FL1840042
p2700
aV27357FL1840043
p2701
aV27357FL1840044
p2702
aV27357FL1840045
p2703
aV27357FL1840047
p2704
aV27357FL1840048
p2705
aV27357FL1840051
p2706
aV27357FL1840052
p2707
aV27357FL1840053
p2708
aV27357FL1840054
p2709
aV27357FL1840055
p2710
aV27357FL1840056
p2711
aV27357FL1850001
p2712
aV27357FL1850003
p2713
aV27357FL1850004
p2714
aV27357FL1850005
p2715
aV27357FL1850006
p2716
aV27357FL1850008
p2717
aV27357FL1850009
p2718
aV27357FL1850010
p2719
aV27357FL1850012
p2720
aV27357FL1850016
p2721
aV27357FL1850017
p2722
aV27357FL1850018
p2723
aV27357FL1850020
p2724
aV27357FL1850021
p2725
aV27357FL1850023
p2726
aV27357FL1850024
p2727
aV27357FL1850028
p2728
aV27357FL1850029
p2729
aV27357FL1850030
p2730
aV27357FL1850034
p2731
aV27357FL1850036
p2732
aV27357FL1850038
p2733
aV27357FL1850040
p2734
aV27357FL1850041
p2735
aV27357FL1850042
p2736
aV27357FL1850043
p2737
aV27357FL1850044
p2738
aV27357FL1850045
p2739
aV27357FL1850047
p2740
aV27357FL1850048
p2741
aV27357FL1850051
p2742
aV27357FL1850052
p2743
aV27357FL1850053
p2744
aV27357FL1850054
p2745
aV27357FL1850055
p2746
aV27357FL1850056
p2747
aV27357FL1860001
p2748
aV27357FL1860003
p2749
aV27357FL1860004
p2750
aV27357FL1860005
p2751
aV27357FL1860006
p2752
aV27357FL1860008
p2753
aV27357FL1860009
p2754
aV27357FL1860010
p2755
aV27357FL1860012
p2756
aV27357FL1860016
p2757
aV27357FL1860017
p2758
aV27357FL1860018
p2759
aV27357FL1860020
p2760
aV27357FL1860021
p2761
aV27357FL1860023
p2762
aV27357FL1860024
p2763
aV27357FL1860028
p2764
aV27357FL1860029
p2765
aV27357FL1860030
p2766
aV27357FL1860034
p2767
aV27357FL1860036
p2768
aV27357FL1860038
p2769
aV27357FL1860040
p2770
aV27357FL1860041
p2771
aV27357FL1860042
p2772
aV27357FL1860043
p2773
aV27357FL1860044
p2774
aV27357FL1860045
p2775
aV27357FL1860047
p2776
aV27357FL1860048
p2777
aV27357FL1860051
p2778
aV27357FL1860052
p2779
aV27357FL1860053
p2780
aV27357FL1860054
p2781
aV27357FL1860055
p2782
aV27357FL1860056
p2783
aV27357FL1870001
p2784
aV27357FL1870003
p2785
aV27357FL1870004
p2786
aV27357FL1870005
p2787
aV27357FL1870006
p2788
aV27357FL1870008
p2789
aV27357FL1870009
p2790
aV27357FL1870010
p2791
aV27357FL1870012
p2792
aV27357FL1870016
p2793
aV27357FL1870017
p2794
aV27357FL1870018
p2795
aV27357FL1870020
p2796
aV27357FL1870021
p2797
aV27357FL1870023
p2798
aV27357FL1870024
p2799
aV27357FL1870028
p2800
aV27357FL1870029
p2801
aV27357FL1870030
p2802
aV27357FL1870034
p2803
aV27357FL1870036
p2804
aV27357FL1870038
p2805
aV27357FL1870040
p2806
aV27357FL1870041
p2807
aV27357FL1870042
p2808
aV27357FL1870043
p2809
aV27357FL1870044
p2810
aV27357FL1870045
p2811
aV27357FL1870047
p2812
aV27357FL1870048
p2813
aV27357FL1870051
p2814
aV27357FL1870052
p2815
aV27357FL1870053
p2816
aV27357FL1870054
p2817
aV27357FL1870055
p2818
aV27357FL1870056
p2819
aV27357FL1880001
p2820
aV27357FL1880002
p2821
aV27357FL1880003
p2822
aV27357FL1880004
p2823
aV27357FL1880005
p2824
aV27357FL1880006
p2825
aV27357FL1880007
p2826
aV27357FL1880008
p2827
aV27357FL1880009
p2828
aV27357FL1880010
p2829
aV27357FL1880011
p2830
aV27357FL1880012
p2831
aV27357FL1880013
p2832
aV27357FL1880014
p2833
aV27357FL1880015
p2834
aV27357FL1880016
p2835
aV27357FL1880017
p2836
aV27357FL1880018
p2837
aV27357FL1880019
p2838
aV27357FL1880020
p2839
aV27357FL1880021
p2840
aV27357FL1890001
p2841
aV27357FL1890002
p2842
aV27357FL1890003
p2843
aV27357FL1890004
p2844
aV27357FL1890005
p2845
aV27357FL1890006
p2846
aV27357FL1890007
p2847
aV27357FL1890008
p2848
aV27357FL1890009
p2849
aV27357FL1890010
p2850
aV27357FL1890011
p2851
aV27357FL1890012
p2852
aV27357FL1890013
p2853
aV27357FL1890014
p2854
aV77150FL1110002
p2855
aV77150FL1110004
p2856
aV77150FL1110005
p2857
aV77150FL1110011
p2858
aV77150FL1110012
p2859
aV77150FL1110013
p2860
aV60612HI0110001
p2861
aV60612HI0110002
p2862
aV60612HI0110004
p2863
aV60612HI0110005
p2864
aV60612HI0110006
p2865
aV60612HI0110007
p2866
aV60612HI0110009
p2867
aV60612HI0110010
p2868
aV60612HI0110011
p2869
aV60612HI0110013
p2870
aV60612HI0130002
p2871
aV60612HI0130006
p2872
aV60612HI0130007
p2873
aV60612HI0130017
p2874
aV60612HI0130018
p2875
aV60612HI0130019
p2876
aV60612HI0130020
p2877
aV60612HI0130021
p2878
aV60612HI0130022
p2879
aV60612HI0130023
p2880
aV60612HI0130024
p2881
aV60612HI0130027
p2882
aV60612HI0130028
p2883
aV60612HI0130029
p2884
aV60612HI0130030
p2885
aV60612HI0150001
p2886
aV60612HI0150002
p2887
aV60612HI0150003
p2888
aV20129IL0280040
p2889
aV20129IL0280041
p2890
aV20129IL0300013
p2891
aV20129IL0300021
p2892
aV20129IL0310037
p2893
aV20129IL0310043
p2894
aV20129IL0310044
p2895
aV20129IL0310045
p2896
aV20129IL0310049
p2897
aV20129IL0310050
p2898
aV20129IL0310051
p2899
aV20129IL0310052
p2900
aV20129IL0320035
p2901
aV20129IL0320036
p2902
aV20129IL0320037
p2903
aV20129IL0320038
p2904
aV20129IL0320039
p2905
aV20129IL0330014
p2906
aV20129IL0330015
p2907
aV20129IL0330017
p2908
aV20129IL0330020
p2909
aV20129IL0330021
p2910
aV20129IL0330022
p2911
aV20129IL0330023
p2912
aV20129IL0330024
p2913
aV20129IL0330026
p2914
aV20129IL0330027
p2915
aV20129IL0340012
p2916
aV20129IL0340015
p2917
aV20129IL0340016
p2918
aV20129IL0340017
p2919
aV20129IL0340018
p2920
aV20129IL0340021
p2921
aV20129IL0340022
p2922
aV20129IL0350009
p2923
aV20129IL0350012
p2924
aV20129IL0350027
p2925
aV20129IL0370008
p2926
aV20129IL0370011
p2927
aV20129IL0370012
p2928
aV38229WA0080001
p2929
aV38229WA0090001
p2930
aV38229WA0100001
p2931
aV38229WA0100002
p2932
aV38229WA0100003
p2933
aV36096IL0770001
p2934
aV36096IL0770002
p2935
aV36096IL0770003
p2936
aV36096IL0770004
p2937
aV36096IL0770020
p2938
aV36096IL0770032
p2939
aV36096IL0810037
p2940
aV36096IL0810038
p2941
aV36096IL0810039
p2942
aV36096IL0810042
p2943
aV36096IL0810043
p2944
aV36096IL0810044
p2945
aV36096IL0810045
p2946
aV36096IL0810046
p2947
aV36096IL0810047
p2948
aV36096IL0810048
p2949
aV36096IL0810049
p2950
aV36096IL0810050
p2951
aV36096IL0810051
p2952
aV36096IL0810052
p2953
aV36096IL0810053
p2954
aV36096IL0810054
p2955
aV36096IL0810055
p2956
aV36096IL0810056
p2957
aV36096IL0810057
p2958
aV36096IL0810058
p2959
aV36096IL0810059
p2960
aV36096IL0820001
p2961
aV36096IL0820002
p2962
aV36096IL0820006
p2963
aV36096IL0820007
p2964
aV36096IL0820008
p2965
aV36096IL0820009
p2966
aV36096IL0820010
p2967
aV36096IL0820011
p2968
aV36096IL0820012
p2969
aV36096IL0820013
p2970
aV36096IL0820014
p2971
aV36096IL0820015
p2972
aV36096IL0820033
p2973
aV36096IL0820044
p2974
aV36096IL0820045
p2975
aV36096IL0820046
p2976
aV36096IL0820047
p2977
aV36096IL0820048
p2978
aV36096IL0820049
p2979
aV36096IL0820053
p2980
aV36096IL0820054
p2981
aV36096IL0950001
p2982
aV36096IL0950002
p2983
aV36096IL0950003
p2984
aV36096IL0950005
p2985
aV36096IL0950006
p2986
aV36096IL0950007
p2987
aV36096IL0950008
p2988
aV36096IL0950009
p2989
aV36096IL0950010
p2990
aV36096IL0950011
p2991
aV36096IL0950012
p2992
aV36096IL0950013
p2993
aV36096IL0960001
p2994
aV36096IL0960002
p2995
aV36096IL0960004
p2996
aV36096IL0960008
p2997
aV36096IL0960009
p2998
aV36096IL0960010
p2999
aV36096IL0960011
p3000
aV36096IL0960012
p3001
aV36096IL0960013
p3002
aV36096IL0960017
p3003
aV36096IL0960018
p3004
aV36096IL0960019
p3005
aV36096IL0970001
p3006
aV36096IL0970002
p3007
aV36096IL0970003
p3008
aV36096IL0970004
p3009
aV36096IL0970005
p3010
aV36096IL0970006
p3011
aV36096IL0970007
p3012
aV36096IL0970008
p3013
aV36096IL0970009
p3014
aV36096IL0970010
p3015
aV36096IL0970011
p3016
aV36096IL0970012
p3017
aV36096IL0970013
p3018
aV36096IL0970014
p3019
aV36096IL0970015
p3020
aV36096IL0970016
p3021
aV36096IL0970017
p3022
aV36096IL0970018
p3023
aV36096IL0970019
p3024
aV36096IL0970020
p3025
aV36096IL0970021
p3026
aV36096IL0970022
p3027
aV36096IL0970023
p3028
aV36096IL0970024
p3029
aV36096IL0970025
p3030
aV36096IL0970026
p3031
aV36096IL0970027
p3032
aV36096IL0970028
p3033
aV36096IL0970029
p3034
aV36096IL0970030
p3035
aV36096IL0970031
p3036
aV36096IL0970032
p3037
aV36096IL0970033
p3038
aV36096IL0970034
p3039
aV36096IL0970035
p3040
aV36096IL0970036
p3041
aV36096IL0970037
p3042
aV36096IL0970038
p3043
aV36096IL0970039
p3044
aV36096IL0980001
p3045
aV36096IL0980002
p3046
aV36096IL0980003
p3047
aV36096IL0980004
p3048
aV36096IL0980008
p3049
aV36096IL0980022
p3050
aV36096IL0980026
p3051
aV36096IL0980027
p3052
aV36096IL0980028
p3053
aV36096IL0980029
p3054
aV36096IL0980030
p3055
aV36096IL0980031
p3056
aV36096IL0980032
p3057
aV36096IL0980033
p3058
aV36096IL0980034
p3059
aV36096IL0980035
p3060
aV36096IL0980036
p3061
aV36096IL0980037
p3062
aV36096IL0980038
p3063
aV36096IL0980039
p3064
aV36096IL0980040
p3065
aV36096IL0980041
p3066
aV36096IL0980042
p3067
aV36096IL0980043
p3068
aV36096IL0980044
p3069
aV36096IL0980045
p3070
aV36096IL0980046
p3071
aV36096IL0980047
p3072
aV36096IL0980048
p3073
aV36096IL0980049
p3074
aV36096IL0980050
p3075
aV36096IL0980051
p3076
aV36096IL0980052
p3077
aV36096IL0980053
p3078
aV36096IL0980054
p3079
aV36096IL0980055
p3080
aV36096IL0980056
p3081
aV36096IL0980057
p3082
aV36096IL0980058
p3083
aV36096IL0980059
p3084
aV36096IL0980060
p3085
aV36096IL0980061
p3086
aV36096IL0980062
p3087
aV36096IL0980063
p3088
aV36096IL0980064
p3089
aV36096IL0980065
p3090
aV36096IL0980066
p3091
aV36096IL0980067
p3092
aV36096IL0980068
p3093
aV36096IL0980069
p3094
aV36096IL0980070
p3095
aV36096IL0980071
p3096
aV36096IL0980072
p3097
aV36096IL0980073
p3098
aV36096IL0980098
p3099
aV36096IL0980099
p3100
aV36096IL0980100
p3101
aV36096IL0980101
p3102
aV36096IL0980102
p3103
aV36096IL0980103
p3104
aV36096IL0980104
p3105
aV36096IL0980105
p3106
aV36096IL0980106
p3107
aV36096IL0980107
p3108
aV36096IL0980108
p3109
aV36096IL0980109
p3110
aV36096IL0980146
p3111
aV36096IL0980147
p3112
aV36096IL0980148
p3113
aV36096IL0980149
p3114
aV36096IL0980150
p3115
aV36096IL0980151
p3116
aV36096IL0980152
p3117
aV36096IL0980153
p3118
aV36096IL0980154
p3119
aV36096IL0980155
p3120
aV36096IL0980156
p3121
aV36096IL0980157
p3122
aV36096IL0990001
p3123
aV36096IL0990002
p3124
aV36096IL0990003
p3125
aV36096IL0990004
p3126
aV36096IL0990005
p3127
aV36096IL0990006
p3128
aV36096IL0990007
p3129
aV36096IL0990008
p3130
aV36096IL0990009
p3131
aV36096IL0990010
p3132
aV36096IL0990011
p3133
aV36096IL0990012
p3134
aV36096IL0990013
p3135
aV36096IL0990014
p3136
aV36096IL0990015
p3137
aV36096IL0990016
p3138
aV36096IL0990017
p3139
aV36096IL0990018
p3140
aV36096IL0990019
p3141
aV36096IL0990020
p3142
aV36096IL0990021
p3143
aV36096IL0990022
p3144
aV36096IL0990023
p3145
aV36096IL0990024
p3146
aV36096IL0990025
p3147
aV36096IL0990026
p3148
aV36096IL0990027
p3149
aV36096IL0990028
p3150
aV36096IL0990029
p3151
aV36096IL0990030
p3152
aV36096IL0990031
p3153
aV36096IL0990032
p3154
aV36096IL0990033
p3155
aV36096IL0990034
p3156
aV36096IL0990035
p3157
aV36096IL0990036
p3158
aV36096IL0990037
p3159
aV36096IL0990038
p3160
aV36096IL0990039
p3161
aV36096IL0990040
p3162
aV36096IL0990041
p3163
aV36096IL0990042
p3164
aV36096IL0990043
p3165
aV36096IL0990044
p3166
aV36096IL0990045
p3167
aV36096IL0990046
p3168
aV36096IL0990047
p3169
aV36096IL0990048
p3170
aV36096IL0990049
p3171
aV36096IL0990050
p3172
aV36096IL0990051
p3173
aV36096IL0990052
p3174
aV36096IL0990053
p3175
aV36096IL0990054
p3176
aV36096IL0990055
p3177
aV36096IL0990056
p3178
aV36096IL0990057
p3179
aV36096IL0990058
p3180
aV36096IL0990059
p3181
aV36096IL0990060
p3182
aV36096IL0990061
p3183
aV36096IL0990062
p3184
aV36096IL0990063
p3185
aV36096IL0990064
p3186
aV36096IL0990065
p3187
aV36096IL0990066
p3188
aV36096IL0990067
p3189
aV36096IL0990068
p3190
aV36096IL0990069
p3191
aV36096IL0990070
p3192
aV36096IL0990071
p3193
aV36096IL0990072
p3194
aV36096IL0990073
p3195
aV36096IL0990074
p3196
aV36096IL0990075
p3197
aV36096IL0990076
p3198
aV36096IL0990077
p3199
aV36096IL0990078
p3200
aV36096IL0990079
p3201
aV36096IL0990080
p3202
aV36096IL0990081
p3203
aV36096IL0990082
p3204
aV36096IL0990083
p3205
aV36096IL0990084
p3206
aV36096IL0990085
p3207
aV36096IL0990086
p3208
aV36096IL0990087
p3209
aV36096IL0990088
p3210
aV36096IL0990089
p3211
aV36096IL0990090
p3212
aV36096IL0990091
p3213
aV36096IL0990092
p3214
aV36096IL0990093
p3215
aV36096IL0990094
p3216
aV36096IL0990095
p3217
aV36096IL0990096
p3218
aV36096IL0990097
p3219
aV36096IL0990098
p3220
aV36096IL0990099
p3221
aV36096IL0990100
p3222
aV36096IL0990101
p3223
aV36096IL0990102
p3224
aV36096IL0990103
p3225
aV36096IL0990104
p3226
aV36096IL0770006
p3227
aV36096IL0980006
p3228
aV36096IL0980074
p3229
aV36096IL0980075
p3230
aV36096IL0980076
p3231
aV36096IL0980077
p3232
aV36096IL0980078
p3233
aV36096IL0980079
p3234
aV36096IL0980080
p3235
aV36096IL0980081
p3236
aV36096IL0980082
p3237
aV36096IL0980083
p3238
aV36096IL0980084
p3239
aV36096IL0980085
p3240
aV78463IL0030003
p3241
aV78463IL0030004
p3242
aV78463IL0030005
p3243
aV78463IL0030006
p3244
aV78463IL0030007
p3245
aV95852GA0010003
p3246
aV95852GA0010004
p3247
aV95852GA0010005
p3248
aV95852GA0010006
p3249
aV95852GA0010007
p3250
aV33380IN0020001
p3251
aV33380IN0020002
p3252
aV33380IN0020003
p3253
aV33380IN0020004
p3254
aV33380IN0020005
p3255
aV33380IN0020006
p3256
aV33380IN0020009
p3257
aV33380IN0020011
p3258
aV33380IN0040001
p3259
aV33380IN0040002
p3260
aV33380IN0040003
p3261
aV50816IN0200001
p3262
aV50816IN0200004
p3263
aV50816IN0200007
p3264
aV50816IN0200010
p3265
aV50816IN0200013
p3266
aV50816IN0200016
p3267
aV50816IN0200022
p3268
aV50816IN0200025
p3269
aV50816IN0230002
p3270
aV50816IN0230004
p3271
aV50816IN0230006
p3272
aV50816IN0230008
p3273
aV50816IN0230010
p3274
aV50816IN0230012
p3275
aV62033IN0010001
p3276
aV62033IN0010002
p3277
aV62033IN0010003
p3278
aV62033IN0010004
p3279
aV62033IN0010005
p3280
aV62033IN0010031
p3281
aV62033IN0020001
p3282
aV62033IN0020002
p3283
aV62033IN0020003
p3284
aV67920IN0510001
p3285
aV67920IN0510002
p3286
aV67920IN0510003
p3287
aV67920IN0510004
p3288
aV67920IN0510005
p3289
aV67920IN0510006
p3290
aV67920IN0510007
p3291
aV18558KS0360001
p3292
aV18558KS0360019
p3293
aV18558KS0360021
p3294
aV18558KS0360031
p3295
aV18558KS0380001
p3296
aV18558KS0380002
p3297
aV18558KS0390007
p3298
aV18558KS0390016
p3299
aV18558KS0390017
p3300
aV18558KS0390025
p3301
aV18558KS0390026
p3302
aV18558KS0390035
p3303
aV18558KS0390043
p3304
aV18558KS0390044
p3305
aV18558KS0370001
p3306
aV18558KS0370002
p3307
aV18558KS0370004
p3308
aV18558KS0370041
p3309
aV18558KS0370042
p3310
aV27811KS0030001
p3311
aV27811KS0030002
p3312
aV27811KS0030003
p3313
aV27811KS0030007
p3314
aV27811KS0030008
p3315
aV19636LA0220005
p3316
aV19636LA0220007
p3317
aV19636LA0220010
p3318
aV19636LA0220011
p3319
aV19636LA0220012
p3320
aV19636LA0220013
p3321
aV19636LA0230002
p3322
aV19636LA0230003
p3323
aV19636LA0230005
p3324
aV19636LA0230006
p3325
aV19636LA0240002
p3326
aV19636LA0240003
p3327
aV19636LA0240005
p3328
aV19636LA0240006
p3329
aV19636LA0250003
p3330
aV19636LA0250014
p3331
aV67243LA0090001
p3332
aV67243LA0090002
p3333
aV67243LA0090003
p3334
aV67243LA0090004
p3335
aV67243LA0090005
p3336
aV67243LA0090006
p3337
aV67243LA0090007
p3338
aV67243LA0090008
p3339
aV67243LA0090009
p3340
aV67243LA0090010
p3341
aV67243LA0100001
p3342
aV67243LA0100002
p3343
aV67243LA0100003
p3344
aV67243LA0100004
p3345
aV67243LA0100005
p3346
aV67243LA0100006
p3347
aV67243LA0100007
p3348
aV67243LA0100008
p3349
aV67243LA0100009
p3350
aV67243LA0100010
p3351
aV97176LA0340010
p3352
aV97176LA0340015
p3353
aV97176LA0340016
p3354
aV97176LA0340017
p3355
aV97176LA0340018
p3356
aV97176LA0340019
p3357
aV97176LA0350001
p3358
aV97176LA0350002
p3359
aV97176LA0350003
p3360
aV97176LA0350004
p3361
aV97176LA0350005
p3362
aV97176LA0350006
p3363
aV97176LA0360010
p3364
aV97176LA0360013
p3365
aV15560MI0350001
p3366
aV15560MI0350002
p3367
aV15560MI0350003
p3368
aV15560MI0350004
p3369
aV15560MI0350005
p3370
aV15560MI0350006
p3371
aV15560MI0370015
p3372
aV15560MI0390003
p3373
aV15560MI0410001
p3374
aV15560MI0410002
p3375
aV15560MI0860001
p3376
aV15560MI0860002
p3377
aV15560MI0860003
p3378
aV15560MI0870002
p3379
aV15560MI0880001
p3380
aV15560MI0880002
p3381
aV15560MI0890001
p3382
aV15560MI0890002
p3383
aV15560MI0900002
p3384
aV15560MI0900003
p3385
aV29241MI0270061
p3386
aV29241MI0270065
p3387
aV29241MI0270068
p3388
aV29241MI0270070
p3389
aV29241MI0270071
p3390
aV29241MI0270072
p3391
aV29241MI0270073
p3392
aV29241MI0270074
p3393
aV29698MI0540001
p3394
aV29698MI0540005
p3395
aV29698MI0540008
p3396
aV29698MI0540014
p3397
aV29698MI0540016
p3398
aV29698MI0540017
p3399
aV29698MI0540018
p3400
aV29698MI0540019
p3401
aV29698MI0540020
p3402
aV29698MI0540021
p3403
aV29698MI0540022
p3404
aV29698MI0540023
p3405
aV29698MI0540024
p3406
aV29698MI0540025
p3407
aV29698MI0540026
p3408
aV29698MI0540027
p3409
aV29698MI0570003
p3410
aV29698MI0570006
p3411
aV29698MI0570009
p3412
aV29698MI0570013
p3413
aV29698MI0570016
p3414
aV29698MI0570019
p3415
aV29698MI0570021
p3416
aV29698MI0570022
p3417
aV29698MI0570023
p3418
aV29698MI0570024
p3419
aV29698MI0570025
p3420
aV29698MI0570026
p3421
aV29698MI0570027
p3422
aV29698MI0570028
p3423
aV29698MI0570029
p3424
aV29698MI0570030
p3425
aV29698MI0570031
p3426
aV29698MI0570032
p3427
aV29698MI0570033
p3428
aV29698MI0570034
p3429
aV29698MI0570035
p3430
aV29698MI0570036
p3431
aV34620MI0050001
p3432
aV34620MI0050002
p3433
aV34620MI0050003
p3434
aV34620MI0060002
p3435
aV67183MI0010001
p3436
aV67183MI0010002
p3437
aV67183MI0010003
p3438
aV67183MI0010004
p3439
aV67183MI0010005
p3440
aV67183MI0010006
p3441
aV67183MI0010007
p3442
aV67183MI0010008
p3443
aV67183MI0010009
p3444
aV67183MI0020001
p3445
aV67183MI0020002
p3446
aV67183MI0020003
p3447
aV67183MI0030001
p3448
aV67183MI0030002
p3449
aV67183MI0100012
p3450
aV37651MI0150001
p3451
aV37651MI0150003
p3452
aV37651MI0150005
p3453
aV37651MI0150007
p3454
aV37651MI0150009
p3455
aV37651MI0150010
p3456
aV37651MI0150011
p3457
aV37651MI0150012
p3458
aV37651MI0150013
p3459
aV37651MI0150014
p3460
aV37651MI0150015
p3461
aV37651MI0190001
p3462
aV37651MI0190002
p3463
aV37651MI0190003
p3464
aV37651MI0190004
p3465
aV37651MI0190005
p3466
aV37651MI0190006
p3467
aV37651MI0190007
p3468
aV37651MI0190008
p3469
aV37651MI0190009
p3470
aV37651MI0190010
p3471
aV37651MI0220002
p3472
aV37651MI0220004
p3473
aV37651MI0220006
p3474
aV37651MI0220008
p3475
aV37651MI0220010
p3476
aV37651MI0220012
p3477
aV37651MI0300001
p3478
aV37651MI0300002
p3479
aV37651MI0300003
p3480
aV37651MI0300004
p3481
aV37651MI0300005
p3482
aV37651MI0300006
p3483
aV37651MI0300007
p3484
aV37651MI0300008
p3485
aV37651MI0300009
p3486
aV37651MI0300010
p3487
aV67577MI0390001
p3488
aV67577MI0390004
p3489
aV67577MI0390006
p3490
aV67577MI0390008
p3491
aV67577MI0390010
p3492
aV67577MI0390011
p3493
aV67577MI0390012
p3494
aV67577MI0390013
p3495
aV67577MI0390014
p3496
aV67577MI0400003
p3497
aV67577MI0400005
p3498
aV67577MI0400007
p3499
aV67577MI0400009
p3500
aV67577MI0400011
p3501
aV67577MI0400013
p3502
aV67577MI0410001
p3503
aV67577MI0410003
p3504
aV67577MI0410005
p3505
aV74917MI0010001
p3506
aV74917MI0010002
p3507
aV74917MI0010003
p3508
aV74917MI0020001
p3509
aV74917MI0020002
p3510
aV74917MI0020003
p3511
aV74917MI0020004
p3512
aV74917MI0020011
p3513
aV98185MI0130025
p3514
aV98185MI0130033
p3515
aV98185MI0160007
p3516
aV98185MI0160011
p3517
aV98185MI0180001
p3518
aV98185MI0180004
p3519
aV98185MI0180005
p3520
aV98185MI0180007
p3521
aV98185MI0180008
p3522
aV98185MI0180009
p3523
aV98185MI0180010
p3524
aV98185MI0180011
p3525
aV98185MI0180012
p3526
aV98185MI0180013
p3527
aV98185MI0180014
p3528
aV98185MI0440001
p3529
aV98185MI0440002
p3530
aV98185MI0440004
p3531
aV98185MI0440005
p3532
aV98185MI0440006
p3533
aV98185MI0440007
p3534
aV98185MI0440008
p3535
aV98185MI0550001
p3536
aV98185MI0550002
p3537
aV98185MI0550003
p3538
aV98185MI0550004
p3539
aV98185MI0550005
p3540
aV98185MI0550006
p3541
aV98185MI0550007
p3542
aV98185MI0550008
p3543
aV34762MO0140004
p3544
aV34762MO0140006
p3545
aV34762MO0140010
p3546
aV34762MO0140012
p3547
aV34762MO0140014
p3548
aV34762MO0140016
p3549
aV34762MO0150004
p3550
aV34762MO0150006
p3551
aV34762MO0150008
p3552
aV34762MO0150010
p3553
aV34762MO0150012
p3554
aV34762MO0150014
p3555
aV34762MO0150016
p3556
aV34762MO0220001
p3557
aV34762MO0220002
p3558
aV34762MO0440001
p3559
aV34762MO0440002
p3560
aV63474OR0330001
p3561
aV94248KS0140004
p3562
aV94248KS0140006
p3563
aV94248KS0140010
p3564
aV94248KS0140012
p3565
aV94248KS0140014
p3566
aV94248KS0140016
p3567
aV94248KS0150004
p3568
aV94248KS0150006
p3569
aV94248KS0150008
p3570
aV94248KS0150010
p3571
aV94248KS0150012
p3572
aV94248KS0150014
p3573
aV94248KS0150016
p3574
aV94248KS0150034
p3575
aV94248KS0150036
p3576
aV94248KS0220001
p3577
aV94248KS0220002
p3578
aV59025NH0300008
p3579
aV59025NH0300015
p3580
aV59025NH0300021
p3581
aV59025NH0300033
p3582
aV59025NH0300045
p3583
aV59025NH0320004
p3584
aV59025NH0320006
p3585
aV59025NH0320008
p3586
aV59025NH0320016
p3587
aV59025NH0320024
p3588
aV59025NH0330002
p3589
aV59025NH0330004
p3590
aV59025NH0330006
p3591
aV59025NH0330008
p3592
aV59025NH0330010
p3593
aV59025NH0330012
p3594
aV59025NH0340001
p3595
aV59025NH0340004
p3596
aV59025NH0340006
p3597
aV96667ME0240002
p3598
aV96667ME0240003
p3599
aV96667ME0240006
p3600
aV96667ME0240008
p3601
aV96667ME0250002
p3602
aV96667ME0250003
p3603
aV96667ME0250009
p3604
aV96667ME0250017
p3605
aV96667ME0250022
p3606
aV96667ME0250024
p3607
aV96667ME0260002
p3608
aV96667ME0260004
p3609
aV96667ME0260006
p3610
aV96667ME0260008
p3611
aV96667ME0270002
p3612
aV96667ME0270004
p3613
aV96667ME0270006
p3614
aV96667ME0270008
p3615
aV91762NJ0070001
p3616
aV91762NJ0070002
p3617
aV91762NJ0070003
p3618
aV91762NJ0070004
p3619
aV91762NJ0070006
p3620
aV91762NJ0070007
p3621
aV91762NJ0070008
p3622
aV91762NJ0070010
p3623
aV91762NJ0070012
p3624
aV91762NJ0070014
p3625
aV91762NJ0070015
p3626
aV91762NJ0070080
p3627
aV91762NJ0070081
p3628
aV91762NJ0070082
p3629
aV91762NJ0070093
p3630
aV91762NJ0070096
p3631
aV91762NJ0070097
p3632
aV91762NJ0080001
p3633
aV91762NJ0080002
p3634
aV91762NJ0080003
p3635
aV91762NJ0080004
p3636
aV91762NJ0080018
p3637
aV91762NJ0080019
p3638
aV91762NJ0080023
p3639
aV91762NJ0080050
p3640
aV91762NJ0080052
p3641
aV91762NJ0080053
p3642
aV91762NJ0080060
p3643
aV91762NJ0080064
p3644
aV91762NJ0080065
p3645
aV91762NJ0080069
p3646
aV91762NJ0080075
p3647
aV91762NJ0080090
p3648
aV91762NJ0080091
p3649
aV91762NJ0080092
p3650
aV91762NJ0100001
p3651
aV91762NJ0100002
p3652
aV91762NJ0100005
p3653
aV91762NJ0100018
p3654
aV91762NJ0100023
p3655
aV91762NJ0110001
p3656
aV91762NJ0110002
p3657
aV57173NM0200001
p3658
aV57173NM0300001
p3659
aV57173NM0300002
p3660
aV57173NM0300003
p3661
aV57173NM0300004
p3662
aV57173NM0310001
p3663
aV57173NM0310002
p3664
aV57173NM0310003
p3665
aV57173NM0310004
p3666
aV57173NM0310005
p3667
aV57173NM0320001
p3668
aV57173NM0320002
p3669
aV57173NM0340001
p3670
aV75605NM0340003
p3671
aV75605NM0340005
p3672
aV75605NM0340012
p3673
aV75605NM0340015
p3674
aV75605NM0340016
p3675
aV75605NM0340017
p3676
aV75605NM0380007
p3677
aV75605NM0380009
p3678
aV75605NM0380014
p3679
aV16204OH0020009
p3680
aV16204OH0020010
p3681
aV16204OH0070001
p3682
aV16204OH0070002
p3683
aV16204OH0070003
p3684
aV16204OH0070004
p3685
aV16204OH0070006
p3686
aV16204OH0070007
p3687
aV16204OH0070008
p3688
aV16204OH0070009
p3689
aV16204OH0070010
p3690
aV26734OH0010001
p3691
aV26734OH0010002
p3692
aV26734OH0010003
p3693
aV26734OH0010004
p3694
aV26734OH0010005
p3695
aV26734OH0010006
p3696
aV26734OH0010007
p3697
aV26734OH0010008
p3698
aV26734OH0010009
p3699
aV26734OH0010010
p3700
aV28162OH0060011
p3701
aV28162OH0060012
p3702
aV28162OH0060015
p3703
aV28162OH0060016
p3704
aV28162OH0060018
p3705
aV28162OH0060019
p3706
aV28162OH0060026
p3707
aV28162OH0060027
p3708
aV28162OH0060030
p3709
aV28162OH0060031
p3710
aV28162OH0060033
p3711
aV28162OH0060034
p3712
aV28162OH0060041
p3713
aV28162OH0060042
p3714
aV28162OH0060045
p3715
aV28162OH0060046
p3716
aV28162OH0060048
p3717
aV28162OH0060049
p3718
aV28162OH0060053
p3719
aV28162OH0060054
p3720
aV28162OH0060056
p3721
aV28162OH0060057
p3722
aV28162OH0060060
p3723
aV28162OH0060061
p3724
aV28162OH0060068
p3725
aV28162OH0060070
p3726
aV28162OH0060072
p3727
aV28162OH0060074
p3728
aV28162OH0090016
p3729
aV28162OH0090018
p3730
aV28162OH0090021
p3731
aV28162OH0090022
p3732
aV28162OH0090023
p3733
aV28162OH0090027
p3734
aV28162OH0090028
p3735
aV28162OH0090030
p3736
aV28162OH0090036
p3737
aV28162OH0090038
p3738
aV28162OH0090041
p3739
aV28162OH0090042
p3740
aV28162OH0090043
p3741
aV28162OH0090047
p3742
aV28162OH0090048
p3743
aV28162OH0090050
p3744
aV28162OH0090052
p3745
aV28162OH0090054
p3746
aV28162OH0090058
p3747
aV28162OH0090060
p3748
aV28162OH0090063
p3749
aV28162OH0090064
p3750
aV28162OH0090066
p3751
aV28162OH0090067
p3752
aV28162OH0090068
p3753
aV28162OH0090070
p3754
aV28162OH0060007
p3755
aV28162OH0060008
p3756
aV28162OH0060009
p3757
aV28162OH0060013
p3758
aV28162OH0060014
p3759
aV28162OH0060021
p3760
aV28162OH0060022
p3761
aV28162OH0060023
p3762
aV28162OH0060024
p3763
aV28162OH0060028
p3764
aV28162OH0060029
p3765
aV28162OH0060036
p3766
aV28162OH0060037
p3767
aV28162OH0060038
p3768
aV28162OH0060039
p3769
aV28162OH0060043
p3770
aV28162OH0060044
p3771
aV28162OH0060051
p3772
aV28162OH0060058
p3773
aV28162OH0060059
p3774
aV28162OH0060063
p3775
aV28162OH0060064
p3776
aV28162OH0060065
p3777
aV28162OH0060066
p3778
aV28162OH0060067
p3779
aV28162OH0060069
p3780
aV28162OH0060071
p3781
aV28162OH0060073
p3782
aV28162OH0060075
p3783
aV28162OH0060076
p3784
aV28162OH0060077
p3785
aV28162OH0060078
p3786
aV28162OH0090011
p3787
aV28162OH0090012
p3788
aV28162OH0090015
p3789
aV28162OH0090017
p3790
aV28162OH0090020
p3791
aV28162OH0090026
p3792
aV28162OH0090029
p3793
aV28162OH0090031
p3794
aV28162OH0090032
p3795
aV28162OH0090035
p3796
aV28162OH0090037
p3797
aV28162OH0090040
p3798
aV28162OH0090046
p3799
aV28162OH0090049
p3800
aV28162OH0090051
p3801
aV28162OH0090053
p3802
aV28162OH0090056
p3803
aV28162OH0090057
p3804
aV28162OH0090059
p3805
aV28162OH0090062
p3806
aV28162OH0090065
p3807
aV28162OH0090069
p3808
aV52664OH1490510
p3809
aV52664OH1490511
p3810
aV52664OH1490512
p3811
aV52664OH1490513
p3812
aV52664OH1490514
p3813
aV52664OH1490515
p3814
aV52664OH1490516
p3815
aV52664OH1490517
p3816
aV52664OH1490518
p3817
aV52664OH1500115
p3818
aV52664OH1500116
p3819
aV52664OH1500117
p3820
aV52664OH1500118
p3821
aV52664OH1500120
p3822
aV52664OH1500154
p3823
aV52664OH1510032
p3824
aV52664OH1510033
p3825
aV52664OH1510038
p3826
aV52664OH1510039
p3827
aV52664OH1510050
p3828
aV52664OH1510051
p3829
aV52664OH1520027
p3830
aV52664OH1520028
p3831
aV52664OH1520029
p3832
aV52664OH1520030
p3833
aV74313OH0210001
p3834
aV74313OH0210002
p3835
aV74313OH0210004
p3836
aV74313OH0210005
p3837
aV74313OH0210006
p3838
aV74313OH0210007
p3839
aV74313OH0210008
p3840
aV74313OH0210009
p3841
aV20126OH0550001
p3842
aV20126OH0550002
p3843
aV20126OH0550003
p3844
aV20126OH0550004
p3845
aV20126OH0550007
p3846
aV20126OH0550008
p3847
aV20126OH0550011
p3848
aV20126OH0550012
p3849
aV20126OH0550013
p3850
aV20126OH0550015
p3851
aV20126OH0550016
p3852
aV20126OH0560001
p3853
aV20126OH0560002
p3854
aV20126OH0560003
p3855
aV20126OH0560004
p3856
aV20126OH0560006
p3857
aV20126OH0560007
p3858
aV20126OH0560008
p3859
aV20126OH0560010
p3860
aV20126OH0560011
p3861
aV92036OH0530001
p3862
aV92036OH0530002
p3863
aV92036OH0530003
p3864
aV92036OH0530004
p3865
aV92036OH0530005
p3866
aV92036OH0530007
p3867
aV92036OH0530008
p3868
aV92036OH0530009
p3869
aV92036OH0530010
p3870
aV92036OH0540003
p3871
aV92036OH0540004
p3872
aV92036OH0540005
p3873
aV92036OH0540006
p3874
aV92036OH0540007
p3875
aV92036OH0540008
p3876
aV92036OH0540009
p3877
aV92036OH0540011
p3878
aV92036OH0540012
p3879
aV92036OH0540013
p3880
aV92036OH0540014
p3881
aV23340OH0010001
p3882
aV23340OH0010002
p3883
aV23340OH0010003
p3884
aV23340OH0010004
p3885
aV23340OH0010005
p3886
aV23340OH0010006
p3887
aV23340OH0010007
p3888
aV23340OH0010008
p3889
aV23340OH0010009
p3890
aV23340OH0010010
p3891
aV23340OH0010011
p3892
aV23340OH0010012
p3893
aV23340OH0010013
p3894
aV23340OH0010014
p3895
aV99969OH0040001
p3896
aV99969OH0040002
p3897
aV99969OH0040011
p3898
aV99969OH0040012
p3899
aV99969OH0040013
p3900
aV99969OH0040016
p3901
aV99969OH0040017
p3902
aV99969OH0040018
p3903
aV99969OH0040019
p3904
aV99969OH0040020
p3905
aV99969OH0040021
p3906
aV99969OH0040022
p3907
aV99969OH0040023
p3908
aV99969OH0080001
p3909
aV99969OH0080002
p3910
aV99969OH0080003
p3911
aV99969OH0080004
p3912
aV99969OH0080005
p3913
aV99969OH0080006
p3914
aV99969OH0080007
p3915
aV99969OH0080008
p3916
aV99969OH0080009
p3917
aV99969OH0080010
p3918
aV87571OK0300001
p3919
aV87571OK0300002
p3920
aV87571OK0300003
p3921
aV87571OK0300004
p3922
aV87571OK0300006
p3923
aV87571OK0300016
p3924
aV87571OK0300019
p3925
aV87571OK0320006
p3926
aV87571OK0320030
p3927
aV87571OK0320031
p3928
aV87571OK0320032
p3929
aV87571OK0320033
p3930
aV87571OK0320046
p3931
aV87571OK0320047
p3932
aV87571OK0320048
p3933
aV87571OK0320049
p3934
aV87571OK0320062
p3935
aV87571OK0320063
p3936
aV87571OK0320064
p3937
aV87571OK0320065
p3938
aV87571OK0320066
p3939
aV87571OK0320067
p3940
aV87571OK0320068
p3941
aV87571OK0320069
p3942
aV87571OK0320070
p3943
aV87571OK0320071
p3944
aV87571OK0320072
p3945
aV87571OK0320073
p3946
aV87571OK0320074
p3947
aV87571OK0320075
p3948
aV87571OK0320076
p3949
aV87571OK0320077
p3950
aV87571OK0330001
p3951
aV87571OK0330002
p3952
aV87571OK0330003
p3953
aV87571OK0330004
p3954
aV87571OK0330006
p3955
aV87571OK0330008
p3956
aV87571OK0330009
p3957
aV87571OK0330010
p3958
aV87571OK0330011
p3959
aV87571OK0330012
p3960
aV87571OK0330013
p3961
aV87571OK0330014
p3962
aV87571OK0330015
p3963
aV87571OK0330016
p3964
aV87571OK0330017
p3965
aV87571OK0330018
p3966
aV87571OK0330019
p3967
aV87571OK0330020
p3968
aV87571OK0330021
p3969
aV87571OK0330022
p3970
aV87571OK0330023
p3971
aV87571OK0330024
p3972
aV87571OK0330029
p3973
aV87571OK0330030
p3974
aV87571OK0330031
p3975
aV87571OK0330032
p3976
aV87571OK0330037
p3977
aV87571OK0330038
p3978
aV87571OK0330039
p3979
aV87571OK0330040
p3980
aV87571OK0330042
p3981
aV87571OK0330047
p3982
aV87571OK0330048
p3983
aV87571OK0330049
p3984
aV87571OK0330050
p3985
aV87571OK0350006
p3986
aV87571OK0350022
p3987
aV87571OK0350023
p3988
aV87571OK0350024
p3989
aV87571OK0350025
p3990
aV87571OK0350026
p3991
aV87571OK0350027
p3992
aV87571OK0350028
p3993
aV87571OK0350029
p3994
aV87571OK0350030
p3995
aV87571OK0350031
p3996
aV87571OK0350032
p3997
aV87571OK0350033
p3998
aV87571OK0350034
p3999
aV87571OK0350035
p4000
aV87571OK0350036
p4001
aV87571OK0350037
p4002
aV87571OK0350038
p4003
aV87571OK0350039
p4004
aV87571OK0350040
p4005
aV87571OK0350041
p4006
aV87571OK0350042
p4007
aV87571OK0350043
p4008
aV87571OK0350044
p4009
aV87571OK0360001
p4010
aV87571OK0360002
p4011
aV87571OK0360003
p4012
aV87571OK0360004
p4013
aV87571OK0360006
p4014
aV87571OK0360007
p4015
aV87571OK0360008
p4016
aV87571OK0360009
p4017
aV87571OK0360010
p4018
aV87571OK0360011
p4019
aV87571OK0360012
p4020
aV87571OK0360013
p4021
aV87571OK0360014
p4022
aV87571OK0360015
p4023
aV87571OK0360016
p4024
aV87571OK0360017
p4025
aV87571OK0360018
p4026
aV87571OK0360019
p4027
aV87571OK0360023
p4028
aV87571OK0360024
p4029
aV87571OK0360025
p4030
aV87571OK0360026
p4031
aV87571OK0360027
p4032
aV87571OK0360028
p4033
aV87571OK0360030
p4034
aV87571OK0360034
p4035
aV87571OK0360035
p4036
aV87571OK0360036
p4037
aV87571OK0460001
p4038
aV87571OK0460002
p4039
aV87571OK0460003
p4040
aV87571OK0460004
p4041
aV87571OK0460005
p4042
aV87571OK0460006
p4043
aV87571OK0460007
p4044
aV87571OK0460008
p4045
aV87571OK0460009
p4046
aV87571OK0460010
p4047
aV87571OK0460011
p4048
aV87571OK0460012
p4049
aV87571OK0460013
p4050
aV87571OK0460014
p4051
aV87571OK0460015
p4052
aV87698OK0090004
p4053
aV87698OK0090005
p4054
aV87698OK0090006
p4055
aV87698OK0090007
p4056
aV87698OK0090008
p4057
aV87698OK0090009
p4058
aV87698OK0090010
p4059
aV87698OK0090011
p4060
aV87698OK0090012
p4061
aV87698OK0090013
p4062
aV87698OK0090014
p4063
aV87698OK0090015
p4064
aV87698OK0090016
p4065
aV87698OK0090017
p4066
aV87698OK0090018
p4067
aV87698OK0090019
p4068
aV98905OK0170025
p4069
aV98905OK0170026
p4070
aV98905OK0170027
p4071
aV98905OK0170028
p4072
aV98905OK0170029
p4073
aV98905OK0170030
p4074
aV98905OK0170031
p4075
aV98905OK0170032
p4076
aV98905OK0170033
p4077
aV98905OK0170034
p4078
aV98905OK0170035
p4079
aV98905OK0170036
p4080
aV98905OK0170037
p4081
aV98905OK0170038
p4082
aV98905OK0170040
p4083
aV98905OK0170042
p4084
aV98905OK0170043
p4085
aV98905OK0170044
p4086
aV98905OK0170045
p4087
aV98905OK0170046
p4088
aV98905OK0170047
p4089
aV98905OK0170048
p4090
aV98905OK0170049
p4091
aV98905OK0170050
p4092
aV98905OK0170051
p4093
aV98905OK0170052
p4094
aV98905OK0170053
p4095
aV98905OK0170054
p4096
aV98905OK0170055
p4097
aV98905OK0170056
p4098
aV98905OK0170057
p4099
aV98905OK0170058
p4100
aV98905OK0170060
p4101
aV98905OK0170062
p4102
aV98905OK0170063
p4103
aV98905OK0170064
p4104
aV98905OK0170065
p4105
aV98905OK0170066
p4106
aV98905OK0170067
p4107
aV98905OK0170068
p4108
aV98905OK0170069
p4109
aV98905OK0170070
p4110
aV98905OK0170071
p4111
aV98905OK0170072
p4112
aV98905OK0170073
p4113
aV98905OK0170075
p4114
aV98905OK0170076
p4115
aV98905OK0170077
p4116
aV98905OK0170078
p4117
aV98905OK0170079
p4118
aV98905OK0170080
p4119
aV98905OK0170081
p4120
aV98905OK0170082
p4121
aV98905OK0170083
p4122
aV63474OR0510001
p4123
aV63474OR0310001
p4124
aV63474OR0520001
p4125
aV63474OR0130001
p4126
aV70194PA0130001
p4127
aV70194PA0130002
p4128
aV70194PA0130003
p4129
aV70194PA0130004
p4130
aV70194PA0140001
p4131
aV70194PA0150001
p4132
aV70194PA0150003
p4133
aV70194PA0150005
p4134
aV70194PA0160001
p4135
aV70194PA0160003
p4136
aV70194PA0170001
p4137
aV70194PA0180001
p4138
aV70194PA0180003
p4139
aV70194PA0180005
p4140
aV70194PA0200002
p4141
aV70194PA0200004
p4142
aV70194PA0210002
p4143
aV70194PA0210004
p4144
aV70194PA0220006
p4145
aV70194PA0230002
p4146
aV70194PA0240006
p4147
aV70194PA0250002
p4148
aV70194PA0490001
p4149
aV70194PA0490002
p4150
aV70194PA0490003
p4151
aV22444PA0010002
p4152
aV22444PA0010003
p4153
aV22444PA0010006
p4154
aV22444PA0010016
p4155
aV22444PA0010018
p4156
aV22444PA0010021
p4157
aV22444PA0010022
p4158
aV22444PA0040010
p4159
aV22444PA0040019
p4160
aV22444PA0040053
p4161
aV22444PA0040059
p4162
aV22444PA0040062
p4163
aV22444PA0040066
p4164
aV22444PA0040069
p4165
aV75729PA0012596
p4166
aV75729PA0012603
p4167
aV75729PA0012611
p4168
aV75729PA0012612
p4169
aV75729PA0012613
p4170
aV75729PA0012614
p4171
aV75729PA0012615
p4172
aV75729PA0012616
p4173
aV26065SC0360001
p4174
aV26065SC0360002
p4175
aV26065SC0380001
p4176
aV26065SC0380002
p4177
aV26065SC0380003
p4178
aV26065SC0380004
p4179
aV26065SC0380005
p4180
aV26065SC0380006
p4181
aV26065SC0380007
p4182
aV26065SC0380008
p4183
aV26065SC0380009
p4184
aV26065SC0380010
p4185
aV26065SC0380011
p4186
aV26065SC0380012
p4187
aV26065SC0380013
p4188
aV26065SC0380014
p4189
aV26065SC0380015
p4190
aV26065SC0380016
p4191
aV26065SC0380017
p4192
aV26065SC0380018
p4193
aV26065SC0380019
p4194
aV26065SC0380020
p4195
aV26065SC0390001
p4196
aV26065SC0400001
p4197
aV26065SC0400002
p4198
aV49532SC0370001
p4199
aV49532SC0370002
p4200
aV49532SC0370003
p4201
aV49532SC0370004
p4202
aV49532SC0370005
p4203
aV49532SC0370006
p4204
aV49532SC0370007
p4205
aV49532SC0370008
p4206
aV49532SC0370009
p4207
aV49532SC0370010
p4208
aV49532SC0370011
p4209
aV49532SC0370012
p4210
aV49532SC0370013
p4211
aV49532SC0370014
p4212
aV49532SC0370015
p4213
aV49532SC0370016
p4214
aV49532SC0370017
p4215
aV49532SC0370018
p4216
aV49532SC0370019
p4217
aV49532SC0370020
p4218
aV49532SC0370021
p4219
aV49532SC0370022
p4220
aV49532SC0370023
p4221
aV49532SC0370024
p4222
aV49532SC0370025
p4223
aV49532SC0370026
p4224
aV49532SC0370027
p4225
aV49532SC0370031
p4226
aV49532SC0370032
p4227
aV49532SC0370033
p4228
aV49532SC0370034
p4229
aV49532SC0370035
p4230
aV49532SC0370036
p4231
aV49532SC0370037
p4232
aV49532SC0370038
p4233
aV49532SC0370039
p4234
aV49532SC0370040
p4235
aV49532SC0370041
p4236
aV49532SC0370042
p4237
aV49532SC0370043
p4238
aV49532SC0370050
p4239
aV49532SC0380001
p4240
aV49532SC0380003
p4241
aV49532SC0380004
p4242
aV49532SC0380005
p4243
aV49532SC0380006
p4244
aV49532SC0380007
p4245
aV49532SC0380008
p4246
aV49532SC0380009
p4247
aV49532SC0380011
p4248
aV49532SC0380013
p4249
aV49532SC0380014
p4250
aV49532SC0380015
p4251
aV49532SC0380016
p4252
aV49532SC0380017
p4253
aV49532SC0380018
p4254
aV49532SC0380019
p4255
aV49532SC0380020
p4256
aV49532SC0380021
p4257
aV49532SC0380022
p4258
aV49532SC0380023
p4259
aV49532SC0380024
p4260
aV49532SC0380025
p4261
aV49532SC0380026
p4262
aV49532SC0380027
p4263
aV49532SC0380028
p4264
aV49532SC0380029
p4265
aV49532SC0380030
p4266
aV49532SC0380032
p4267
aV49532SC0380033
p4268
aV49532SC0380034
p4269
aV49532SC0380035
p4270
aV31195SD0080001
p4271
aV31195SD0080002
p4272
aV31195SD0080003
p4273
aV31195SD0080004
p4274
aV31195SD0080005
p4275
aV31195SD0080006
p4276
aV31195SD0080007
p4277
aV31195SD0080008
p4278
aV31195SD0080009
p4279
aV31195SD0080010
p4280
aV31195SD0090001
p4281
aV31195SD0090002
p4282
aV31195SD0090003
p4283
aV31195SD0090004
p4284
aV31195SD0090005
p4285
aV31195SD0090006
p4286
aV31195SD0090007
p4287
aV31195SD0090008
p4288
aV85930IA0060001
p4289
aV85930IA0060002
p4290
aV85930IA0060003
p4291
aV85930IA0060004
p4292
aV85930IA0060005
p4293
aV85930IA0060006
p4294
aV85930IA0060007
p4295
aV85930IA0060008
p4296
aV89364ND0090001
p4297
aV89364ND0090002
p4298
aV89364ND0090003
p4299
aV89364ND0090004
p4300
aV89364ND0090005
p4301
aV89364ND0090006
p4302
aV89364ND0090007
p4303
aV89364ND0090008
p4304
aV89364ND0090009
p4305
aV89364ND0090010
p4306
aV89364ND0100001
p4307
aV89364ND0100002
p4308
aV89364ND0100003
p4309
aV89364ND0100004
p4310
aV89364ND0100005
p4311
aV89364ND0100006
p4312
aV89364ND0100007
p4313
aV89364ND0100008
p4314
aV89364ND0100009
p4315
aV60536SD0010015
p4316
aV60536SD0010017
p4317
aV60536SD0010019
p4318
aV60536SD0010020
p4319
aV60536SD0010021
p4320
aV60536SD0010022
p4321
aV60536SD0010023
p4322
aV60536SD0010024
p4323
aV60536SD0010025
p4324
aV60536SD0010026
p4325
aV60536SD0010027
p4326
aV60536SD0020006
p4327
aV60536SD0020007
p4328
aV60536SD0020009
p4329
aV60536SD0020010
p4330
aV60536SD0020011
p4331
aV60536SD0020012
p4332
aV60536SD0020013
p4333
aV60536SD0020014
p4334
aV60536SD0020018
p4335
aV60536SD0020021
p4336
aV60536SD0020022
p4337
aV60536SD0020023
p4338
aV60536SD0020024
p4339
aV60536SD0020025
p4340
aV74980IA0010015
p4341
aV74980IA0010017
p4342
aV74980IA0010019
p4343
aV74980IA0010020
p4344
aV74980IA0010021
p4345
aV74980IA0010022
p4346
aV74980IA0010023
p4347
aV74980IA0010024
p4348
aV74980IA0010025
p4349
aV14002TN0190065
p4350
aV14002TN0190066
p4351
aV14002TN0190067
p4352
aV14002TN0190068
p4353
aV14002TN0190069
p4354
aV14002TN0190070
p4355
aV14002TN0190071
p4356
aV14002TN0190072
p4357
aV14002TN0190073
p4358
aV14002TN0190074
p4359
aV14002TN0190075
p4360
aV14002TN0190076
p4361
aV14002TN0190077
p4362
aV14002TN0190078
p4363
aV14002TN0190079
p4364
aV14002TN0190080
p4365
aV14002TN0190081
p4366
aV14002TN0190082
p4367
aV14002TN0190083
p4368
aV14002TN0190084
p4369
aV14002TN0190085
p4370
aV14002TN0190086
p4371
aV14002TN0190087
p4372
aV14002TN0190088
p4373
aV14002TN0190089
p4374
aV14002TN0190090
p4375
aV14002TN0190091
p4376
aV14002TN0190092
p4377
aV14002TN0190093
p4378
aV14002TN0190094
p4379
aV14002TN0190095
p4380
aV14002TN0190096
p4381
aV14002TN0190097
p4382
aV14002TN0190098
p4383
aV14002TN0190099
p4384
aV14002TN0190100
p4385
aV14002TN0190101
p4386
aV14002TN0190102
p4387
aV14002TN0190103
p4388
aV14002TN0190104
p4389
aV14002TN0190105
p4390
aV14002TN0190106
p4391
aV14002TN0190107
p4392
aV14002TN0190108
p4393
aV14002TN0190109
p4394
aV14002TN0330001
p4395
aV14002TN0330002
p4396
aV14002TN0330003
p4397
aV14002TN0330005
p4398
aV14002TN0330006
p4399
aV14002TN0330007
p4400
aV14002TN0330008
p4401
aV14002TN0330009
p4402
aV14002TN0330010
p4403
aV14002TN0330011
p4404
aV14002TN0330012
p4405
aV14002TN0330013
p4406
aV14002TN0330015
p4407
aV14002TN0330016
p4408
aV14002TN0330017
p4409
aV14002TN0330018
p4410
aV14002TN0330019
p4411
aV14002TN0330020
p4412
aV14002TN0330021
p4413
aV14002TN0330022
p4414
aV14002TN0330023
p4415
aV14002TN0330025
p4416
aV14002TN0330026
p4417
aV14002TN0330027
p4418
aV14002TN0330028
p4419
aV14002TN0330029
p4420
aV14002TN0330030
p4421
aV14002TN0330031
p4422
aV14002TN0330032
p4423
aV14002TN0330033
p4424
aV14002TN0330034
p4425
aV14002TN0330035
p4426
aV14002TN0330036
p4427
aV14002TN0330037
p4428
aV14002TN0330038
p4429
aV14002TN0330039
p4430
aV14002TN0330040
p4431
aV14002TN0330041
p4432
aV14002TN0330042
p4433
aV14002TN0330043
p4434
aV14002TN0330044
p4435
aV14002TN0330045
p4436
aV14002TN0330046
p4437
aV14002TN0330047
p4438
aV14002TN0330048
p4439
aV14002TN0330049
p4440
aV14002TN0330050
p4441
aV14002TN0330051
p4442
aV14002TN0330052
p4443
aV14002TN0330053
p4444
aV14002TN0330054
p4445
aV14002TN0330055
p4446
aV14002TN0330056
p4447
aV14002TN0330057
p4448
aV14002TN0330058
p4449
aV14002TN0330059
p4450
aV14002TN0330060
p4451
aV14002TN0330061
p4452
aV14002TN0330062
p4453
aV14002TN0330063
p4454
aV14002TN0330064
p4455
aV14002TN0330065
p4456
aV14002TN0330066
p4457
aV14002TN0330067
p4458
aV14002TN0330068
p4459
aV14002TN0330069
p4460
aV14002TN0330070
p4461
aV14002TN0330071
p4462
aV14002TN0330072
p4463
aV14002TN0330073
p4464
aV14002TN0330074
p4465
aV14002TN0330075
p4466
aV20069TX0010001
p4467
aV20069TX0020001
p4468
aV20069TX0030001
p4469
aV20069TX0040001
p4470
aV20069TX0060001
p4471
aV20069TX0070001
p4472
aV20069TX0080001
p4473
aV20069TX0100001
p4474
aV20069TX0110001
p4475
aV20069TX0120001
p4476
aV20069TX0140001
p4477
aV20069TX0150001
p4478
aV20069TX0170001
p4479
aV20069TX0180001
p4480
aV20069TX0190001
p4481
aV20069TX0210001
p4482
aV20069TX0220001
p4483
aV20069TX0230001
p4484
aV20069TX0250001
p4485
aV20069TX0260001
p4486
aV20069TX0270001
p4487
aV20069TX0290001
p4488
aV20069TX0300001
p4489
aV50221NJ0020001
p4490
aV50221NJ0050001
p4491
aV50221NJ0080001
p4492
aV50221NJ0100001
p4493
aV50221NJ0130001
p4494
aV50221NJ0160001
p4495
aV50221NJ0170001
p4496
aV50221NJ0200001
p4497
aV50221NJ0220001
p4498
aV50221NJ0230001
p4499
aV50221NJ0250001
p4500
aV50221NJ0270001
p4501
aV50221NJ0280001
p4502
aV50221NJ0300001
p4503
aV50221NJ0320001
p4504
aV50221NJ0340001
p4505
aV50221NJ0350001
p4506
aV26539TX0130001
p4507
aV26539TX0130002
p4508
aV26539TX0130003
p4509
aV26539TX0130004
p4510
aV26539TX0130005
p4511
aV26539TX0130006
p4512
aV26539TX0130007
p4513
aV26539TX0130016
p4514
aV26539TX0130017
p4515
aV26539TX0130018
p4516
aV26539TX0140001
p4517
aV26539TX0140002
p4518
aV26539TX0140003
p4519
aV26539TX0140004
p4520
aV26539TX0140005
p4521
aV26539TX0140006
p4522
aV26539TX0140007
p4523
aV27248TX0010001
p4524
aV27248TX0010002
p4525
aV27248TX0010003
p4526
aV27248TX0010004
p4527
aV27248TX0010005
p4528
aV37392TX0010001
p4529
aV37392TX0010002
p4530
aV37392TX0010003
p4531
aV37392TX0010005
p4532
aV37392TX0010006
p4533
aV37755TX0010001
p4534
aV37755TX0010002
p4535
aV37755TX0010003
p4536
aV37755TX0010004
p4537
aV37755TX0020001
p4538
aV37755TX0020003
p4539
aV37755TX0030001
p4540
aV37755TX0030002
p4541
aV37755TX0030003
p4542
aV40788TX0160001
p4543
aV40788TX0170001
p4544
aV40788TX0170002
p4545
aV40788TX0170005
p4546
aV40788TX0180001
p4547
aV40788TX0180003
p4548
aV40788TX0180005
p4549
aV40788TX0180006
p4550
aV40788TX0190001
p4551
aV40788TX0190002
p4552
aV40788TX0190003
p4553
aV46224TX0010001
p4554
aV46224TX0010002
p4555
aV46224TX0010003
p4556
aV46224TX0010004
p4557
aV46224TX0010006
p4558
aV46224TX0030001
p4559
aV46224TX0030002
p4560
aV46224TX0050001
p4561
aV46224TX0050002
p4562
aV46224TX0050003
p4563
aV46224TX0050004
p4564
aV46224TX0050006
p4565
aV46224TX0060001
p4566
aV46224TX0060002
p4567
aV33602TX0430001
p4568
aV33602TX0430003
p4569
aV33602TX0430005
p4570
aV33602TX0460006
p4571
aV33602TX0460136
p4572
aV33602TX0460137
p4573
aV33602TX0460138
p4574
aV33602TX0460139
p4575
aV33602TX0460140
p4576
aV33602TX0460141
p4577
aV33602TX0460142
p4578
aV33602TX0460143
p4579
aV33602TX0460144
p4580
aV33602TX0460145
p4581
aV33602TX0460146
p4582
aV33602TX0460147
p4583
aV33602TX0460148
p4584
aV33602TX0460149
p4585
aV33602TX0460150
p4586
aV33602TX0460151
p4587
aV33602TX0460152
p4588
aV33602TX0460153
p4589
aV33602TX0460154
p4590
aV33602TX0460155
p4591
aV33602TX0460156
p4592
aV33602TX0460157
p4593
aV33602TX0460158
p4594
aV33602TX0460159
p4595
aV33602TX0460160
p4596
aV33602TX0460237
p4597
aV33602TX0460238
p4598
aV33602TX0460239
p4599
aV33602TX0460241
p4600
aV33602TX0460242
p4601
aV33602TX0460268
p4602
aV33602TX0460269
p4603
aV33602TX0460270
p4604
aV33602TX0460271
p4605
aV33602TX0460272
p4606
aV33602TX0460273
p4607
aV33602TX0460274
p4608
aV33602TX0460275
p4609
aV33602TX0460276
p4610
aV33602TX0460277
p4611
aV33602TX0460278
p4612
aV33602TX0460279
p4613
aV33602TX0460280
p4614
aV33602TX0460281
p4615
aV33602TX0460282
p4616
aV33602TX0460283
p4617
aV33602TX0460284
p4618
aV33602TX0460285
p4619
aV33602TX0460286
p4620
aV33602TX0460287
p4621
aV33602TX0460288
p4622
aV33602TX0460289
p4623
aV33602TX0460290
p4624
aV33602TX0460291
p4625
aV33602TX0460292
p4626
aV33602TX0460293
p4627
aV33602TX0460294
p4628
aV33602TX0460295
p4629
aV33602TX0460296
p4630
aV33602TX0460297
p4631
aV33602TX0460298
p4632
aV33602TX0460299
p4633
aV33602TX0460300
p4634
aV33602TX0460301
p4635
aV33602TX0460302
p4636
aV33602TX0460303
p4637
aV33602TX0460304
p4638
aV33602TX0460305
p4639
aV33602TX0460306
p4640
aV33602TX0460307
p4641
aV33602TX0460308
p4642
aV33602TX0460309
p4643
aV33602TX0460310
p4644
aV33602TX0460311
p4645
aV33602TX0460312
p4646
aV33602TX0460313
p4647
aV33602TX0460314
p4648
aV33602TX0460315
p4649
aV33602TX0460316
p4650
aV33602TX0460317
p4651
aV33602TX0460318
p4652
aV33602TX0460319
p4653
aV33602TX0460320
p4654
aV33602TX0460321
p4655
aV33602TX0460322
p4656
aV33602TX0460323
p4657
aV33602TX0460324
p4658
aV33602TX0460325
p4659
aV33602TX0460326
p4660
aV33602TX0460327
p4661
aV33602TX0460328
p4662
aV33602TX0460329
p4663
aV33602TX0460330
p4664
aV33602TX0460331
p4665
aV33602TX0460332
p4666
aV33602TX0460333
p4667
aV33602TX0460334
p4668
aV33602TX0460335
p4669
aV33602TX0460336
p4670
aV33602TX0460337
p4671
aV33602TX0460338
p4672
aV33602TX0460339
p4673
aV33602TX0460340
p4674
aV33602TX0460341
p4675
aV33602TX0460342
p4676
aV33602TX0460368
p4677
aV33602TX0460369
p4678
aV33602TX0460370
p4679
aV33602TX0460371
p4680
aV33602TX0460372
p4681
aV33602TX0460373
p4682
aV33602TX0460374
p4683
aV33602TX0460375
p4684
aV33602TX0460376
p4685
aV33602TX0460377
p4686
aV33602TX0460378
p4687
aV33602TX0460379
p4688
aV33602TX0460380
p4689
aV33602TX0460381
p4690
aV33602TX0460382
p4691
aV33602TX0460383
p4692
aV33602TX0460384
p4693
aV33602TX0460385
p4694
aV33602TX0460386
p4695
aV33602TX0460387
p4696
aV33602TX0460388
p4697
aV33602TX0460389
p4698
aV33602TX0460390
p4699
aV33602TX0460391
p4700
aV33602TX0460392
p4701
aV33602TX0460393
p4702
aV33602TX0460394
p4703
aV33602TX0460395
p4704
aV33602TX0460396
p4705
aV33602TX0460397
p4706
aV33602TX0460398
p4707
aV33602TX0460399
p4708
aV33602TX0460400
p4709
aV33602TX0460401
p4710
aV33602TX0460402
p4711
aV33602TX0460403
p4712
aV33602TX0460404
p4713
aV33602TX0460405
p4714
aV33602TX0460406
p4715
aV33602TX0460407
p4716
aV33602TX0460408
p4717
aV33602TX0460409
p4718
aV33602TX0460410
p4719
aV33602TX0460411
p4720
aV33602TX0460412
p4721
aV33602TX0460413
p4722
aV33602TX0460414
p4723
aV33602TX0460415
p4724
aV33602TX0460416
p4725
aV33602TX0460417
p4726
aV33602TX0470003
p4727
aV33602TX0470004
p4728
aV33602TX0470074
p4729
aV33602TX0470075
p4730
aV33602TX0470076
p4731
aV33602TX0470077
p4732
aV33602TX0470078
p4733
aV33602TX0470079
p4734
aV33602TX0470080
p4735
aV33602TX0470081
p4736
aV33602TX0470082
p4737
aV33602TX0470083
p4738
aV33602TX0470084
p4739
aV33602TX0470085
p4740
aV33602TX0470086
p4741
aV33602TX0470087
p4742
aV33602TX0470088
p4743
aV33602TX0470089
p4744
aV33602TX0470090
p4745
aV33602TX0470091
p4746
aV33602TX0470092
p4747
aV33602TX0470093
p4748
aV33602TX0470094
p4749
aV33602TX0470095
p4750
aV33602TX0470096
p4751
aV33602TX0470097
p4752
aV33602TX0470098
p4753
aV33602TX0470099
p4754
aV33602TX0470100
p4755
aV33602TX0470101
p4756
aV33602TX0470102
p4757
aV33602TX0470103
p4758
aV33602TX0470104
p4759
aV33602TX0470105
p4760
aV33602TX0470106
p4761
aV33602TX0470107
p4762
aV33602TX0470108
p4763
aV33602TX0470109
p4764
aV33602TX0470110
p4765
aV33602TX0470111
p4766
aV33602TX0470112
p4767
aV33602TX0470113
p4768
aV33602TX0470114
p4769
aV33602TX0470115
p4770
aV33602TX0470116
p4771
aV33602TX0470117
p4772
aV33602TX0470118
p4773
aV33602TX0470119
p4774
aV33602TX0470120
p4775
aV33602TX0470121
p4776
aV33602TX0470122
p4777
aV33602TX0470123
p4778
aV33602TX0770001
p4779
aV33602TX0770002
p4780
aV33602TX0770003
p4781
aV33602TX0770004
p4782
aV33602TX0770005
p4783
aV33602TX0770006
p4784
aV33602TX0770007
p4785
aV33602TX0770008
p4786
aV33602TX0770009
p4787
aV33602TX0770010
p4788
aV33602TX0770011
p4789
aV33602TX0770012
p4790
aV33602TX0770013
p4791
aV33602TX0770014
p4792
aV33602TX0770015
p4793
aV33602TX0770016
p4794
aV33602TX0770017
p4795
aV33602TX0770018
p4796
aV33602TX0770019
p4797
aV33602TX0770020
p4798
aV33602TX0770021
p4799
aV33602TX0770022
p4800
aV33602TX0770023
p4801
aV33602TX0770024
p4802
aV33602TX0770025
p4803
aV33602TX0770026
p4804
aV33602TX0770027
p4805
aV33602TX0770028
p4806
aV33602TX0770029
p4807
aV33602TX0770030
p4808
aV33602TX0770031
p4809
aV33602TX0770032
p4810
aV33602TX0770033
p4811
aV33602TX0770034
p4812
aV33602TX0770035
p4813
aV33602TX0770036
p4814
aV33602TX0770037
p4815
aV33602TX0770038
p4816
aV33602TX0770039
p4817
aV33602TX0770040
p4818
aV33602TX0770041
p4819
aV33602TX0770042
p4820
aV33602TX0770043
p4821
aV33602TX0770044
p4822
aV33602TX0770045
p4823
aV33602TX0770046
p4824
aV33602TX0770047
p4825
aV33602TX0770048
p4826
aV33602TX0770049
p4827
aV33602TX0770050
p4828
aV33602TX0770051
p4829
aV33602TX0770052
p4830
aV33602TX0770053
p4831
aV33602TX0770054
p4832
aV33602TX0770055
p4833
aV33602TX0770056
p4834
aV33602TX0770057
p4835
aV33602TX0770058
p4836
aV33602TX0770059
p4837
aV33602TX0770060
p4838
aV33602TX0770061
p4839
aV33602TX0770062
p4840
aV33602TX0770063
p4841
aV33602TX0770064
p4842
aV33602TX0770065
p4843
aV33602TX0770066
p4844
aV33602TX0770067
p4845
aV33602TX0770068
p4846
aV33602TX0770069
p4847
aV33602TX0770070
p4848
aV33602TX0770071
p4849
aV33602TX0770072
p4850
aV33602TX0770073
p4851
aV33602TX0770074
p4852
aV33602TX0770075
p4853
aV33602TX0770076
p4854
aV33602TX0770077
p4855
aV33602TX0770078
p4856
aV33602TX0770079
p4857
aV33602TX0770080
p4858
aV33602TX0770081
p4859
aV33602TX0770082
p4860
aV33602TX0770083
p4861
aV33602TX0770084
p4862
aV33602TX0770085
p4863
aV33602TX0770086
p4864
aV33602TX0770087
p4865
aV33602TX0770088
p4866
aV33602TX0770089
p4867
aV33602TX0770090
p4868
aV33602TX0770091
p4869
aV33602TX0770092
p4870
aV33602TX0770093
p4871
aV33602TX0770094
p4872
aV33602TX0770095
p4873
aV33602TX0770096
p4874
aV33602TX0770097
p4875
aV33602TX0770098
p4876
aV33602TX0770099
p4877
aV33602TX0770100
p4878
aV33602TX0770101
p4879
aV33602TX0770102
p4880
aV33602TX0770103
p4881
aV33602TX0770104
p4882
aV33602TX0780001
p4883
aV33602TX0780002
p4884
aV33602TX0780003
p4885
aV33602TX0780004
p4886
aV33602TX0780005
p4887
aV33602TX0780006
p4888
aV33602TX0780007
p4889
aV33602TX0780008
p4890
aV33602TX0780009
p4891
aV33602TX0780010
p4892
aV33602TX0780011
p4893
aV33602TX0780012
p4894
aV33602TX0780013
p4895
aV33602TX0780014
p4896
aV33602TX0780015
p4897
aV33602TX0780016
p4898
aV33602TX0780017
p4899
aV33602TX0780018
p4900
aV33602TX0780019
p4901
aV33602TX0780020
p4902
aV33602TX0780021
p4903
aV33602TX0780022
p4904
aV33602TX0780023
p4905
aV33602TX0780024
p4906
aV33602TX0780025
p4907
aV33602TX0780026
p4908
aV33602TX0780027
p4909
aV33602TX0780028
p4910
aV33602TX0780029
p4911
aV33602TX0780030
p4912
aV33602TX0780031
p4913
aV33602TX0780032
p4914
aV33602TX0780033
p4915
aV33602TX0780034
p4916
aV33602TX0780035
p4917
aV33602TX0780036
p4918
aV33602TX0780037
p4919
aV33602TX0780038
p4920
aV33602TX0780039
p4921
aV33602TX0780040
p4922
aV33602TX0780041
p4923
aV33602TX0780042
p4924
aV33602TX0780043
p4925
aV33602TX0780044
p4926
aV33602TX0780045
p4927
aV33602TX0780046
p4928
aV33602TX0780047
p4929
aV33602TX0780048
p4930
aV33602TX0780049
p4931
aV33602TX0780050
p4932
aV33602TX0780051
p4933
aV33602TX0780052
p4934
aV33602TX0780053
p4935
aV33602TX0780054
p4936
aV33602TX0780055
p4937
aV33602TX0780056
p4938
aV33602TX0780057
p4939
aV33602TX0780058
p4940
aV33602TX0780059
p4941
aV33602TX0780060
p4942
aV33602TX0780061
p4943
aV33602TX0780062
p4944
aV33602TX0780063
p4945
aV33602TX0780064
p4946
aV33602TX0780065
p4947
aV33602TX0780066
p4948
aV33602TX0780067
p4949
aV33602TX0780068
p4950
aV33602TX0780069
p4951
aV33602TX0780070
p4952
aV33602TX0780071
p4953
aV33602TX0780072
p4954
aV33602TX0780073
p4955
aV33602TX0780074
p4956
aV33602TX0780075
p4957
aV33602TX0780076
p4958
aV33602TX0780077
p4959
aV33602TX0780078
p4960
aV33602TX0430006
p4961
aV33602TX0430020
p4962
aV33602TX0470006
p4963
aV33602TX0470014
p4964
aV33602TX0470015
p4965
aV33602TX0470149
p4966
aV33602TX0470150
p4967
aV33602TX0470151
p4968
aV33602TX0470152
p4969
aV33602TX0470153
p4970
aV33602TX0470154
p4971
aV33602TX0470155
p4972
aV33602TX0470156
p4973
aV33602TX0470157
p4974
aV33602TX0470158
p4975
aV33602TX0470159
p4976
aV33602TX0470160
p4977
aV33602TX0470161
p4978
aV33602TX0470162
p4979
aV33602TX0470163
p4980
aV33602TX0470164
p4981
aV33602TX0470165
p4982
aV33602TX0470166
p4983
aV33602TX0470167
p4984
aV33602TX0470168
p4985
aV33602TX0470169
p4986
aV33602TX0470170
p4987
aV33602TX0470171
p4988
aV33602TX0470172
p4989
aV33602TX0470173
p4990
aV33602TX0470274
p4991
aV33602TX0470275
p4992
aV33602TX0470276
p4993
aV33602TX0470277
p4994
aV33602TX0470278
p4995
aV33602TX0470279
p4996
aV33602TX0470280
p4997
aV33602TX0470281
p4998
aV33602TX0470282
p4999
aV33602TX0470283
p5000
aV33602TX0470284
p5001
aV33602TX0470285
p5002
aV33602TX0470286
p5003
aV33602TX0470287
p5004
aV33602TX0470288
p5005
aV33602TX0470289
p5006
aV33602TX0470290
p5007
aV33602TX0470291
p5008
aV33602TX0470292
p5009
aV33602TX0470293
p5010
aV33602TX0470294
p5011
aV33602TX0470295
p5012
aV33602TX0470296
p5013
aV33602TX0470297
p5014
aV33602TX0470298
p5015
aV33602TX0470299
p5016
aV33602TX0470300
p5017
aV33602TX0470301
p5018
aV33602TX0470302
p5019
aV33602TX0470303
p5020
aV33602TX0470304
p5021
aV33602TX0470305
p5022
aV33602TX0470306
p5023
aV33602TX0470307
p5024
aV33602TX0470308
p5025
aV33602TX0470309
p5026
aV33602TX0470310
p5027
aV33602TX0470311
p5028
aV33602TX0470312
p5029
aV33602TX0470313
p5030
aV33602TX0470314
p5031
aV33602TX0470315
p5032
aV33602TX0470316
p5033
aV33602TX0470317
p5034
aV33602TX0470318
p5035
aV33602TX0470319
p5036
aV33602TX0470320
p5037
aV33602TX0470321
p5038
aV33602TX0470322
p5039
aV33602TX0470323
p5040
aV63509TX0150001
p5041
aV63509TX0150002
p5042
aV63509TX0150003
p5043
aV63509TX0160001
p5044
aV63509TX0160002
p5045
aV63509TX0160003
p5046
aV63509TX0160004
p5047
aV71837TX0010001
p5048
aV71837TX0010002
p5049
aV71837TX0010003
p5050
aV50491GA0020001
p5051
aV50491GA0020002
p5052
aV50491GA0020003
p5053
aV50491GA0020004
p5054
aV50491GA0020005
p5055
aV50491GA0020006
p5056
aV55409TX0060001
p5057
aV55409TX0060002
p5058
aV55409TX0060003
p5059
aV55409TX0060004
p5060
aV55409TX0060005
p5061
aV55409TX0060006
p5062
aV55409TX0060007
p5063
aV74483MO0040001
p5064
aV74483MO0040002
p5065
aV74483MO0040003
p5066
aV74483MO0040004
p5067
aV74483MO0040005
p5068
aV74483MO0040006
p5069
aV74483MO0040007
p5070
aV74483MO0040008
p5071
aV76589TX0010001
p5072
aV76589TX0010002
p5073
aV76589TX0010003
p5074
aV76589TX0010004
p5075
aV76589TX0010005
p5076
aV76589TX0010006
p5077
aV76589TX0010007
p5078
aV97667AZ0110003
p5079
aV97667AZ0110004
p5080
aV97667AZ0110005
p5081
aV97667AZ0110006
p5082
aV97667AZ0110007
p5083
aV97667AZ0110008
p5084
aV97667AZ0110009
p5085
aV99248TN0020001
p5086
aV99248TN0020002
p5087
aV99248TN0020003
p5088
aV99248TN0020004
p5089
aV99248TN0020005
p5090
aV99248TN0020007
p5091
aV99248TN0060001
p5092
aV99248TN0060002
p5093
aV99248TN0060003
p5094
aV99248TN0060004
p5095
aV99248TN0060005
p5096
aV99248TN0060006
p5097
aV42261UT0050001
p5098
aV42261UT0050002
p5099
aV42261UT0050003
p5100
aV42261UT0050004
p5101
aV42261UT0050005
p5102
aV68781UT0010001
p5103
aV68781UT0010002
p5104
aV68781UT0010003
p5105
aV68781UT0010004
p5106
aV68781UT0010005
p5107
aV68781UT0010006
p5108
aV68781UT0010007
p5109
aV68781UT0010008
p5110
aV68781UT0010009
p5111
aV68781UT0010010
p5112
aV68781UT0010011
p5113
aV68781UT0010012
p5114
aV68781UT0010014
p5115
aV68781UT0010015
p5116
aV68781UT0010016
p5117
aV68781UT0010017
p5118
aV68781UT0010018
p5119
aV68781UT0010019
p5120
aV68781UT0020001
p5121
aV68781UT0020002
p5122
aV68781UT0020003
p5123
aV68781UT0020004
p5124
aV68781UT0020005
p5125
aV68781UT0020006
p5126
aV68781UT0020007
p5127
aV68781UT0020008
p5128
aV68781UT0020009
p5129
aV68781UT0020010
p5130
aV68781UT0020011
p5131
aV68781UT0020012
p5132
aV68781UT0020014
p5133
aV68781UT0020015
p5134
aV68781UT0020016
p5135
aV68781UT0020017
p5136
aV68781UT0020018
p5137
aV68781UT0020019
p5138
aV68781UT0030001
p5139
aV68781UT0030002
p5140
aV68781UT0030003
p5141
aV68781UT0030004
p5142
aV68781UT0030005
p5143
aV68781UT0030006
p5144
aV68781UT0030007
p5145
aV68781UT0030008
p5146
aV68781UT0030009
p5147
aV68781UT0030010
p5148
aV68781UT0030011
p5149
aV68781UT0030012
p5150
aV68781UT0030014
p5151
aV68781UT0030015
p5152
aV68781UT0030016
p5153
aV68781UT0030017
p5154
aV68781UT0030018
p5155
aV68781UT0030019
p5156
aV68781UT0120005
p5157
aV68781UT0120010
p5158
aV68781UT0130005
p5159
aV68781UT0130010
p5160
aV68781UT0140005
p5161
aV68781UT0140010
p5162
aV20507VA1170001
p5163
aV20507VA1170002
p5164
aV20507VA1170006
p5165
aV20507VA1170007
p5166
aV20507VA1170008
p5167
aV20507VA1170009
p5168
aV20507VA1170011
p5169
aV20507VA1170017
p5170
aV20507VA1170019
p5171
aV20507VA1170020
p5172
aV20507VA1170021
p5173
aV20507VA1180001
p5174
aV20507VA1180002
p5175
aV20507VA1180003
p5176
aV15668VA0130029
p5177
aV15668VA0130031
p5178
aV15668VA0130033
p5179
aV15668VA0130035
p5180
aV15668VA0130037
p5181
aV15668VA0130039
p5182
aV15668VA0130041
p5183
aV15668VA0130043
p5184
aV15668VA0130045
p5185
aV15668VA0130047
p5186
aV15668VA0140031
p5187
aV15668VA0140033
p5188
aV15668VA0140035
p5189
aV15668VA0140037
p5190
aV15668VA0140039
p5191
aV15668VA0140041
p5192
aV15668VA0140043
p5193
aV15668VA0140045
p5194
aV15668VA0140047
p5195
aV15668VA0140049
p5196
aV15668VA0140051
p5197
aV15668VA0140053
p5198
aV15668VA0140055
p5199
aV15668VA0140057
p5200
aV15668VA0140059
p5201
aV15668VA0140061
p5202
aV15668VA0140063
p5203
aV15668VA0140065
p5204
aV15668VA0140067
p5205
aV15668VA0140071
p5206
aV15668VA0140073
p5207
aV15668VA0140075
p5208
aV15668VA0140077
p5209
aV15668VA0140079
p5210
aV15668VA0140081
p5211
aV37204VA0010001
p5212
aV37204VA0010002
p5213
aV37204VA0010003
p5214
aV37204VA0010004
p5215
aV37204VA0010005
p5216
aV37204VA0010006
p5217
aV37204VA0010007
p5218
aV37204VA0010008
p5219
aV37204VA0010009
p5220
aV37204VA0010010
p5221
aV37204VA0020001
p5222
aV37204VA0020002
p5223
aV37204VA0020003
p5224
aV37204VA0020004
p5225
aV37204VA0020005
p5226
aV37204VA0020006
p5227
aV37204VA0020007
p5228
aV37204VA0020008
p5229
aV37204VA0020009
p5230
aV37204VA0020010
p5231
aV37204VA0020011
p5232
aV37204VA0020012
p5233
aV37204VA0020013
p5234
aV37204VA0020014
p5235
aV37204VA0020015
p5236
aV37204VA0020016
p5237
aV37204VA0020017
p5238
aV37204VA0020018
p5239
aV37204VA0020019
p5240
aV37204VA0020021
p5241
aV37204VA0020022
p5242
aV37204VA0020023
p5243
aV37204VA0020024
p5244
aV37204VA0020025
p5245
aV37204VA0020026
p5246
aV10207VA0380009
p5247
aV10207VA0380010
p5248
aV10207VA0380011
p5249
aV10207VA0380013
p5250
aV10207VA0380014
p5251
aV10207VA0380001
p5252
aV10207VA0380003
p5253
aV10207VA0380005
p5254
aV10207VA0380007
p5255
aV10207VA0380012
p5256
aV10207VA0380002
p5257
aV10207VA0380006
p5258
aV10207VA0380008
p5259
aV10207VA0400001
p5260
aV10207VA0400004
p5261
aV10207VA0400002
p5262
aV10207VA0400003
p5263
aV10207VA0400005
p5264
aV10207VA0400006
p5265
aV40308VA0220002
p5266
aV40308VA0220001
p5267
aV40308VA0240003
p5268
aV40308VA0240004
p5269
aV40308VA0240005
p5270
aV40308VA0240006
p5271
aV95185VA0500001
p5272
aV95185VA0500002
p5273
aV95185VA0500003
p5274
aV95185VA0500004
p5275
aV95185VA0500005
p5276
aV95185VA0500006
p5277
aV95185VA0500007
p5278
aV95185VA0500008
p5279
aV95185VA0500009
p5280
aV95185VA0500010
p5281
aV95185VA0500011
p5282
aV95185VA0500012
p5283
aV95185VA0500013
p5284
aV95185VA0500014
p5285
aV95185VA0500015
p5286
aV95185VA0530001
p5287
aV95185VA0530002
p5288
aV95185VA0530003
p5289
aV95185VA0530004
p5290
aV95185VA0530005
p5291
aV95185VA0530006
p5292
aV95185VA0530007
p5293
aV95185VA0530008
p5294
aV95185VA0530009
p5295
aV95185VA0530010
p5296
aV12028VA0120001
p5297
aV12028VA0120007
p5298
aV12028VA0120015
p5299
aV12028VA0120019
p5300
aV12028VA0120022
p5301
aV12028VA0120027
p5302
aV12028VA0120028
p5303
aV12028VA0120029
p5304
aV18628FL0120001
p5305
aV18628FL0120002
p5306
aV18628FL0120003
p5307
aV18628FL0120004
p5308
aV18628FL0120006
p5309
aV29497DE0090001
p5310
aV29497DE0090002
p5311
aV29497DE0090003
p5312
aV29497DE0090004
p5313
aV38234VA0060025
p5314
aV38234VA0060027
p5315
aV38234VA0060029
p5316
aV38234VA0060031
p5317
aV38234VA0060033
p5318
aV38234VA0060035
p5319
aV38234VA0060043
p5320
aV38234VA0060045
p5321
aV38234VA0060047
p5322
aV38234VA0060049
p5323
aV38234VA0060051
p5324
aV38234VA0060053
p5325
aV38408SC0010001
p5326
aV38408SC0010002
p5327
aV38408SC0010003
p5328
aV38408SC0010004
p5329
aV38408SC0010005
p5330
aV38408SC0010006
p5331
aV38408SC0010007
p5332
aV61671NC0060001
p5333
aV61671NC0060002
p5334
aV61671NC0060003
p5335
aV61671NC0060004
p5336
aV61671NC0060005
p5337
aV61671NC0060006
p5338
aV61671NC0060007
p5339
aV61671NC0060008
p5340
aV61671NC0060009
p5341
aV61671NC0060010
p5342
aV61671NC0060011
p5343
aV61671NC0060012
p5344
aV61671NC0060013
p5345
aV61671NC0060014
p5346
aV64844PA0090001
p5347
aV64844PA0090002
p5348
aV64844PA0090003
p5349
aV64844PA0090004
p5350
aV64844PA0090005
p5351
aV64844PA0090006
p5352
aV64844PA0090007
p5353
aV64844PA0090008
p5354
aV64844PA0120001
p5355
aV64844PA0120002
p5356
aV64844PA0120003
p5357
aV64844PA0120004
p5358
aV64844PA0120005
p5359
aV64844PA0120006
p5360
aV64844PA0120007
p5361
aV67129OH0100001
p5362
aV67129OH0100003
p5363
aV67129OH0100007
p5364
aV67129OH0100009
p5365
aV67190DE0060001
p5366
aV67190DE0060002
p5367
aV67190DE0060003
p5368
aV67190DE0080001
p5369
aV67190DE0080002
p5370
aV67190DE0080003
p5371
aV67190DE0080004
p5372
aV78611AZ0060001
p5373
aV78611AZ0060002
p5374
aV78611AZ0060003
p5375
aV78611AZ0060004
p5376
aV78611AZ0060005
p5377
aV78611AZ0060006
p5378
aV78611AZ0060007
p5379
aV86443VA0060001
p5380
aV86443VA0060002
p5381
aV86443VA0060003
p5382
aV91716TX0200001
p5383
aV91716TX0200002
p5384
aV91716TX0200003
p5385
aV91716TX0200004
p5386
aV91716TX0200005
p5387
aV91716TX0200006
p5388
aV91716TX0200007
p5389
aV91716TX0200008
p5390
aV91716TX0200009
p5391
aV91716TX0200010
p5392
aV91716TX0200011
p5393
aV91716TX0200012
p5394
aV99129IL0060001
p5395
aV99129IL0060002
p5396
aV99129IL0060003
p5397
aV99129IL0060004
p5398
aV16049MO0030001
p5399
aV16049MO0030002
p5400
aV16049MO0030003
p5401
aV16049MO0030004
p5402
aV16049MO0030005
p5403
aV16049MO0030006
p5404
aV16049MO0030007
p5405
aV16049MO0030008
p5406
aV16724IL0010001
p5407
aV16724IL0010002
p5408
aV16724IL0010003
p5409
aV16724IL0010004
p5410
aV16724IL0010006
p5411
aV16724IL0010007
p5412
aV16724IL0010008
p5413
aV16724IL0010009
p5414
aV16724IL0010010
p5415
aV16724IL0010011
p5416
aV23489PA0010056
p5417
aV23489PA0010059
p5418
aV23489PA0010063
p5419
aV23489PA0010070
p5420
aV24872PA0010001
p5421
aV24872PA0010002
p5422
aV24872PA0010004
p5423
aV24872PA0010010
p5424
aV24872PA0010016
p5425
aV24872PA0010019
p5426
aV33931OH0030002
p5427
aV33931OH0030004
p5428
aV33931OH0030005
p5429
aV33931OH0030006
p5430
aV33931OH0030007
p5431
aV33931OH0030008
p5432
aV33931OH0030009
p5433
aV33931OH0030010
p5434
aV33931OH0030011
p5435
aV36373IN0020001
p5436
aV36373IN0020002
p5437
aV36373IN0020003
p5438
aV36373IN0020004
p5439
aV36373IN0020005
p5440
aV36373IN0020006
p5441
aV36373IN0020007
p5442
aV36373IN0020008
p5443
aV36373IN0020009
p5444
aV38499LA0040004
p5445
aV38499LA0040005
p5446
aV38499LA0040006
p5447
aV38499LA0040007
p5448
aV38499LA0040008
p5449
aV38499LA0040009
p5450
aV38599VA0040001
p5451
aV38599VA0040002
p5452
aV38599VA0040003
p5453
aV38599VA0040004
p5454
aV38599VA0040005
p5455
aV38599VA0040006
p5456
aV39924WI0030002
p5457
aV39924WI0030003
p5458
aV39924WI0030004
p5459
aV39924WI0030005
p5460
aV39924WI0030006
p5461
aV39924WI0030007
p5462
aV39924WI0030008
p5463
aV39924WI0030009
p5464
aV39924WI0030010
p5465
aV39924WI0030011
p5466
aV39924WI0040001
p5467
aV39924WI0040002
p5468
aV39924WI0040003
p5469
aV39924WI0040004
p5470
aV43802GA0040002
p5471
aV43802GA0040003
p5472
aV43802GA0040004
p5473
aV43802GA0040005
p5474
aV43802GA0040006
p5475
aV43802GA0040007
p5476
aV43802GA0040008
p5477
aV43802GA0040009
p5478
aV43802GA0040010
p5479
aV44751NE0010001
p5480
aV44751NE0010002
p5481
aV44751NE0010003
p5482
aV44751NE0010004
p5483
aV44751NE0010005
p5484
aV44751NE0010006
p5485
aV44751NE0010007
p5486
aV44751NE0010008
p5487
aV45480OK0050002
p5488
aV45480OK0050003
p5489
aV45480OK0050004
p5490
aV45480OK0050005
p5491
aV45480OK0050006
p5492
aV45480OK0050007
p5493
aV45480OK0050008
p5494
aV45480OK0050009
p5495
aV45480OK0050010
p5496
aV45480OK0050011
p5497
aV48834NJ0080002
p5498
aV48834NJ0080003
p5499
aV48834NJ0080004
p5500
aV48834NJ0080005
p5501
aV48834NJ0080006
p5502
aV48834NJ0080007
p5503
aV48834NJ0080008
p5504
aV48834NJ0080009
p5505
aV50274KS0030001
p5506
aV50274KS0030002
p5507
aV50274KS0030003
p5508
aV50274KS0030004
p5509
aV50274KS0030005
p5510
aV50274KS0030006
p5511
aV50274KS0030007
p5512
aV50274KS0030008
p5513
aV51902IA0010001
p5514
aV51902IA0010002
p5515
aV51902IA0010003
p5516
aV51902IA0010004
p5517
aV51902IA0010005
p5518
aV51902IA0010006
p5519
aV51902IA0010007
p5520
aV51902IA0010008
p5521
aV51902IA0010009
p5522
aV51902IA0010010
p5523
aV54332NC0030002
p5524
aV54332NC0030003
p5525
aV54332NC0030004
p5526
aV54332NC0030005
p5527
aV54332NC0030006
p5528
aV54332NC0030007
p5529
aV54332NC0030008
p5530
aV54332NC0030009
p5531
aV54332NC0030010
p5532
aV57860SC0060001
p5533
aV57860SC0060002
p5534
aV57860SC0060003
p5535
aV57860SC0060004
p5536
aV57860SC0060005
p5537
aV57860SC0060006
p5538
aV57860SC0060007
p5539
aV57860SC0060008
p5540
aV57860SC0060009
p5541
aV63631MI0010070
p5542
aV63631MI0060019
p5543
aV63631MI0060020
p5544
aV63631MI0060021
p5545
aV63631MI0060022
p5546
aV65817AR0030001
p5547
aV65817AR0030002
p5548
aV65817AR0030003
p5549
aV65817AR0030004
p5550
aV65817AR0030005
p5551
aV65817AR0030006
p5552
aV65817AR0030007
p5553
aV65817AR0030008
p5554
aV65817AR0030009
p5555
aV65817AR0040001
p5556
aV65817AR0040002
p5557
aV65817AR0040003
p5558
aV65817AR0040004
p5559
aV65817AR0040005
p5560
aV65817AR0040006
p5561
aV65817AR0040007
p5562
aV65817AR0040008
p5563
aV65817AR0040009
p5564
aV65817AR0040010
p5565
aV68259AL0040004
p5566
aV68259AL0040005
p5567
aV68259AL0040006
p5568
aV68259AL0040007
p5569
aV68259AL0040008
p5570
aV68259AL0040009
p5571
aV68398FL0010005
p5572
aV68398FL0010052
p5573
aV68398FL0010059
p5574
aV68398FL0010074
p5575
aV68398FL0030004
p5576
aV68398FL0030005
p5577
aV68398FL0030006
p5578
aV68398FL0030007
p5579
aV68398FL0030008
p5580
aV68398FL0030009
p5581
aV68398FL0030010
p5582
aV69443TN0070001
p5583
aV69443TN0070002
p5584
aV69443TN0070003
p5585
aV69443TN0070004
p5586
aV69443TN0070005
p5587
aV69443TN0070006
p5588
aV69443TN0070007
p5589
aV69443TN0070008
p5590
aV69443TN0070009
p5591
aV71667MI0010002
p5592
aV71667MI0010003
p5593
aV71667MI0010004
p5594
aV71667MI0010005
p5595
aV71667MI0010006
p5596
aV71667MI0010007
p5597
aV71667MI0010008
p5598
aV71667MI0010009
p5599
aV71667MI0010010
p5600
aV71667MI0010011
p5601
aV78726OH0020001
p5602
aV78726OH0020002
p5603
aV78726OH0020003
p5604
aV78726OH0020004
p5605
aV78726OH0020005
p5606
aV78726OH0020006
p5607
aV78726OH0020007
p5608
aV78726OH0020008
p5609
aV78726OH0020009
p5610
aV85947TX0010002
p5611
aV85947TX0010003
p5612
aV85947TX0010004
p5613
aV85947TX0010005
p5614
aV85947TX0010006
p5615
aV85947TX0010007
p5616
aV85947TX0010008
p5617
aV85947TX0010009
p5618
aV85947TX0010010
p5619
aV85947TX0010011
p5620
aV88678IA0010041
p5621
aV88678IA0010058
p5622
aV88678IA0010147
p5623
aV88678IA0030005
p5624
aV97560MS0040004
p5625
aV97560MS0040005
p5626
aV97560MS0040006
p5627
aV97560MS0040007
p5628
aV97560MS0040008
p5629
aV97560MS0040009
p5630
aV98809TX0100040
p5631
aV98809TX0100042
p5632
aV98809TX0100092
p5633
aV98809TX0100094
p5634
aV98809TX0100183
p5635
aV98809TX0100186
p5636
aV98971AZ0010065
p5637
aV98971AZ0010066
p5638
aV98971AZ0020001
p5639
aV98971AZ0020002
p5640
aV98971AZ0020003
p5641
aV98971AZ0020004
p5642
aV98971AZ0020005
p5643
aV98971AZ0020007
p5644
aV98971AZ0020008
p5645
aV98971AZ0020009
p5646
aV98971AZ0020010
p5647
aV98971AZ0020011
p5648
aV98971AZ0020012
p5649
aV87416WI0010019
p5650
aV87416WI0010020
p5651
aV87416WI0010021
p5652
aV87416WI0010022
p5653
aV87416WI0010023
p5654
aV87416WI0010024
p5655
aV87416WI0010026
p5656
aV87416WI0010027
p5657
aV87416WI0010050
p5658
aV87416WI0010051
p5659
aV87416WI0020008
p5660
aV87416WI0020009
p5661
aV87416WI0020010
p5662
aV87416WI0020011
p5663
aV87416WI0020012
p5664
aV87416WI0020014
p5665
aV87416WI0020015
p5666
aV87416WI0020016
p5667
aV87416WI0020017
p5668
aV87416WI0020018
p5669
aV87416WI0020019
p5670
aV87416WI0020021
p5671
aV87416WI0020030
p5672
aV87416WI0020031
p5673
aV87416WI0020032
p5674
aV87416WI0020033
p5675
aV87416WI0020050
p5676
aV87416WI0020051
p5677
aV87416WI0020052
p5678
aV87416WI0020053
p5679
aV49046GA0410014
p5680
aV49046GA0410015
p5681
aV49046GA0410016
p5682
aV49046GA0410017
p5683
aV49046GA0410018
p5684
aV49046GA0410019
p5685
aV49046GA0410020
p5686
aV49046GA0410021
p5687
aV49046GA0410022
p5688
aV49046GA0410023
p5689
aV49046GA0410024
p5690
aV49046GA0420004
p5691
aV49046GA0420005
p5692
aV49046GA0420006
p5693
aV49046GA0420007
p5694
aV49046GA0420008
p5695
aV49046GA0420009
p5696
aV49046GA0420010
p5697
aV49046GA0420011
p5698
aV49046GA0420012
p5699
aV49046GA0420013
p5700
aV49046GA0420014
p5701
aV49046GA0420015
p5702
aV49046GA0420016
p5703
aV49046GA0420017
p5704
aV49046GA0420018
p5705
aV49046GA0420019
p5706
aV49046GA0420020
p5707
aV49046GA0420021
p5708
aV49046GA0420022
p5709
aV49046GA0420023
p5710
aV49046GA0420024
p5711
aV49046GA0420025
p5712
aV49046GA0420026
p5713
aV49046GA0420027
p5714
aV49046GA0420028
p5715
aV49046GA0420029
p5716
aV49046GA0420030
p5717
aV49046GA0420031
p5718
aV49046GA0420032
p5719
aV49046GA0420033
p5720
aV49046GA0420034
p5721
aV49046GA0420035
p5722
aV49046GA0420036
p5723
aV49046GA0420037
p5724
aV49046GA0420038
p5725
aV49046GA0420039
p5726
aV49046GA0420040
p5727
aV49046GA0420041
p5728
aV49046GA0420042
p5729
aV49046GA0420043
p5730
aV49046GA0420044
p5731
aV49046GA0420045
p5732
aV49046GA0420046
p5733
aV49046GA0420047
p5734
aV49046GA0420048
p5735
aV49046GA0420049
p5736
aV49046GA0420050
p5737
aV49046GA0420051
p5738
aV49046GA0610003
p5739
aV49046GA0610004
p5740
aV17575IN0700020
p5741
aV17575IN0700021
p5742
aV17575IN0700023
p5743
aV17575IN0700024
p5744
aV17575IN0700025
p5745
aV17575IN0700026
p5746
aV17575IN0700027
p5747
aV17575IN0700028
p5748
aV17575IN0700029
p5749
aV17575IN0700030
p5750
aV17575IN0700031
p5751
aV17575IN0700032
p5752
aV17575IN0700033
p5753
aV17575IN0700034
p5754
aV17575IN0720008
p5755
aV17575IN0720009
p5756
aV17575IN0720010
p5757
aV17575IN0720012
p5758
aV17575IN0730003
p5759
aV17575IN0760002
p5760
aV17575IN0930005
p5761
aV17575IN0930006
p5762
aV48396ME0710011
p5763
aV48396ME0710012
p5764
aV48396ME0710013
p5765
aV48396ME0710014
p5766
aV48396ME0710015
p5767
aV48396ME0710016
p5768
aV48396ME0710017
p5769
aV48396ME0710018
p5770
aV48396ME0710019
p5771
aV48396ME0710020
p5772
aV48396ME0710021
p5773
aV48396ME0710031
p5774
aV48396ME0710032
p5775
aV48396ME0720011
p5776
aV48396ME0720012
p5777
aV48396ME0720013
p5778
aV48396ME0720014
p5779
aV48396ME0720015
p5780
aV48396ME0720016
p5781
aV48396ME0720017
p5782
aV48396ME0720018
p5783
aV48396ME0720020
p5784
aV48396ME0720022
p5785
aV48396ME0720023
p5786
aV48396ME0720024
p5787
aV48396ME0720025
p5788
aV48396ME0720026
p5789
aV48396ME0720027
p5790
aV48396ME0720028
p5791
aV48396ME0720029
p5792
aV48396ME0720030
p5793
aV48396ME0720031
p5794
aV48396ME0720032
p5795
aV48396ME0720033
p5796
aV48396ME0720034
p5797
aV48396ME0720035
p5798
aV48396ME0720036
p5799
aV48396ME0720037
p5800
aV48396ME0720038
p5801
aV48396ME0730004
p5802
aV48396ME0730008
p5803
aV48396ME0730012
p5804
aV48396ME0770001
p5805
aV48396ME0930003
p5806
aV48396ME0930004
p5807
aV48396ME0940003
p5808
aV48396ME0940004
p5809
aV48396ME0940005
p5810
aV48396ME0940006
p5811
aV32753MO0770015
p5812
aV32753MO0770016
p5813
aV32753MO0770017
p5814
aV32753MO0770018
p5815
aV32753MO0770019
p5816
aV32753MO0770020
p5817
aV32753MO0770021
p5818
aV32753MO0770022
p5819
aV32753MO0770023
p5820
aV32753MO0770025
p5821
aV32753MO0770026
p5822
aV32753MO0770027
p5823
aV32753MO0770028
p5824
aV32753MO0770029
p5825
aV32753MO0770030
p5826
aV32753MO0770031
p5827
aV32753MO0780004
p5828
aV32753MO0780005
p5829
aV32753MO0780006
p5830
aV32753MO0780007
p5831
aV32753MO0780008
p5832
aV32753MO0780009
p5833
aV32753MO0780010
p5834
aV32753MO0780018
p5835
aV32753MO0780019
p5836
aV32753MO0780020
p5837
aV32753MO0780021
p5838
aV32753MO0780022
p5839
aV32753MO0780023
p5840
aV32753MO0780024
p5841
aV32753MO0780025
p5842
aV32753MO0780026
p5843
aV32753MO0780027
p5844
aV32753MO0780028
p5845
aV32753MO0780029
p5846
aV32753MO0780030
p5847
aV32753MO0780031
p5848
aV32753MO0930004
p5849
aV32753MO0930006
p5850
aV58564WI0260016
p5851
aV58564WI0260017
p5852
aV58564WI0260018
p5853
aV58564WI0260019
p5854
aV58564WI0260020
p5855
aV58564WI0260021
p5856
aV58564WI0260022
p5857
aV58564WI0260023
p5858
aV58564WI0260024
p5859
aV58564WI0260025
p5860
aV58564WI0260026
p5861
aV58564WI0260027
p5862
aV58564WI0260028
p5863
aV58564WI0260029
p5864
aV58564WI0260030
p5865
aV58564WI0260031
p5866
aV58564WI0260032
p5867
aV81413WI0460001
p5868
aV81413WI0460002
p5869
aV81413WI0460003
p5870
aV81413WI0460004
p5871
aV81413WI0470001
p5872
aV81413WI0470002
p5873
aV81413WI0470003
p5874
aV81413WI0470004
p5875
aV84670WI1250007
p5876
aV84670WI1250015
p5877
aV84670WI1250029
p5878
aV84670WI1250032
p5879
aV84670WI1250034
p5880
aV84670WI1250036
p5881
aV84670WI1250039
p5882
aV84670WI1250045
p5883
aV84670WI1250048
p5884
aV84670WI1250051
p5885
aV84670WI1250054
p5886
aV84670WI1250074
p5887
aV84670WI1250077
p5888
aV84670WI1250080
p5889
aV84670WI1250081
p5890
aV84670WI1250084
p5891
aV84670WI1250087
p5892
aV84670WI1250090
p5893
aV84670WI1250091
p5894
aV84670WI1250093
p5895
aV84670WI1250094
p5896
aV84670WI1250100
p5897
aV84670WI1250101
p5898
aV84670WI1250102
p5899
aV84670WI1250103
p5900
aV84670WI1250104
p5901
aV84670WI1250105
p5902
aV84670WI1250106
p5903
aV84670WI1250107
p5904
aV84670WI1250108
p5905
aV84670WI1250109
p5906
aV84670WI1250110
p5907
aV84670WI1250111
p5908
aV84670WI1250112
p5909
aV84670WI1250113
p5910
aV84670WI1250114
p5911
aV84670WI1250115
p5912
aV84670WI1250116
p5913
aV84670WI1250117
p5914
aV84670WI1250118
p5915
aV84670WI1250119
p5916
aV84670WI1250120
p5917
aV84670WI1250121
p5918
aV84670WI1250122
p5919
aV84670WI1250123
p5920
aV84670WI1250124
p5921
aV84670WI1250125
p5922
aV84670WI1250126
p5923
aV84670WI1250127
p5924
aV84670WI1250128
p5925
aV84670WI1250129
p5926
aV84670WI1250130
p5927
aV84670WI1250131
p5928
aV84670WI1250132
p5929
aV84670WI1250133
p5930
aV84670WI1250134
p5931
aV84670WI1250135
p5932
aV84670WI1250136
p5933
aV84670WI1250137
p5934
aV84670WI1250138
p5935
aV84670WI1270015
p5936
aV84670WI1270032
p5937
aV84670WI1270036
p5938
aV84670WI1270048
p5939
aV84670WI1270054
p5940
aV84670WI1270077
p5941
aV84670WI1270081
p5942
aV84670WI1270087
p5943
aV84670WI1270091
p5944
aV84670WI1270102
p5945
aV84670WI1270105
p5946
aV84670WI1270108
p5947
aV84670WI1270109
p5948
aV84670WI1270112
p5949
aV84670WI1270115
p5950
aV84670WI1270118
p5951
aV84670WI1270119
p5952
aV84670WI1270122
p5953
aV84670WI1270125
p5954
aV84670WI1270128
p5955
aV84670WI1270129
p5956
aV84670WI1270132
p5957
aV84670WI1270135
p5958
aV84670WI1270138
p5959
aV84670WI1330044
p5960
aV84670WI1330045
p5961
aV84670WI1330046
p5962
aV84670WI1330048
p5963
aV84670WI1330055
p5964
aV84670WI1330057
p5965
aV84670WI1330073
p5966
aV84670WI1330074
p5967
aV84670WI1330076
p5968
aV84670WI1330077
p5969
aV84670WI1330078
p5970
aV84670WI1330079
p5971
aV84670WI1330080
p5972
aV84670WI1330081
p5973
aV84670WI1330101
p5974
aV84670WI1330102
p5975
aV84670WI1330103
p5976
aV84670WI1330104
p5977
aV84670WI1330106
p5978
aV84670WI1330107
p5979
aV84670WI1330114
p5980
aV84670WI1330115
p5981
aV84670WI1330116
p5982
aV84670WI1330117
p5983
aV84670WI1330119
p5984
aV84670WI1330120
p5985
aV84670WI1330122
p5986
aV84670WI1330123
p5987
aV84670WI1330124
p5988
aV84670WI1330125
p5989
aV84670WI1330126
p5990
aV84670WI1330127
p5991
aV84670WI1330128
p5992
aV84670WI1330129
p5993
aV84670WI1330130
p5994
aV84670WI1330131
p5995
aV84670WI1330132
p5996
aV84670WI1330133
p5997
aV84670WI1350044
p5998
aV84670WI1350045
p5999
aV84670WI1350046
p6000
aV84670WI1350048
p6001
aV84670WI1350055
p6002
aV84670WI1350057
p6003
aV84670WI1350073
p6004
aV84670WI1350074
p6005
aV84670WI1350076
p6006
aV84670WI1350077
p6007
aV84670WI1350078
p6008
aV84670WI1350079
p6009
aV84670WI1350080
p6010
aV84670WI1350081
p6011
aV84670WI1350101
p6012
aV84670WI1350102
p6013
aV84670WI1350103
p6014
aV84670WI1350104
p6015
aV84670WI1350106
p6016
aV84670WI1350107
p6017
aV84670WI1350114
p6018
aV84670WI1350115
p6019
aV84670WI1350116
p6020
aV84670WI1350117
p6021
aV84670WI1350119
p6022
aV84670WI1350120
p6023
aV84670WI1350122
p6024
aV84670WI1350123
p6025
aV84670WI1350124
p6026
aV84670WI1350125
p6027
aV84670WI1350126
p6028
aV84670WI1350127
p6029
aV84670WI1350128
p6030
aV84670WI1350129
p6031
aV84670WI1350130
p6032
aV84670WI1350131
p6033
aV84670WI1350132
p6034
aV84670WI1350133
p6035
aV84670WI1351175
p6036
aa.